
Memory Configuration

Name             Origin             Length             Attributes
*default*        0x00000000         0xffffffff

Linker script and memory map

LOAD build/startmenu.o
LOAD build/jtag.o
LOAD build/framebuffer.o
LOAD build/blockinsert.o
LOAD build/draw.o
LOAD build/write.o
LOAD build/snes.o
LOAD build/main.o

.init           0x00008000        0x4
 *(.init)
 .init          0x00008000        0x4 build/main.o
                0x00008000                _start

.data           0x00009080   0x375f00
 *(.data)
 .data          0x00009080    0x4e201 build/startmenu.o
 .data          0x00057281        0x0 build/jtag.o
 *fill*         0x00057281        0xf 3f3f3f3f
 .data          0x00057290       0x70 build/framebuffer.o
                0x000572f0                FrameBufferPointer
 .data          0x00057300        0x0 build/blockinsert.o
 .data          0x00057300        0x2 build/draw.o
 *fill*         0x00057302        0xe 3f3f3f3f
 .data          0x00057310      0x800 build/write.o
 .data          0x00057b10        0x0 build/snes.o
 .data          0x00057b10   0x327470 build/main.o
                0x00057b10                game_block
                0x00058e98                start_screen
                0x001d8e98                game_area
                0x00358e98                i_block
                0x00358e98                game_over_screen
                0x0035ae98                i_block_black
                0x0035ce98                s_block_green
                0x0035fe98                s_block_green_black
                0x00362e98                s_block_red
                0x00365e98                s_block_red_black
                0x00368e98                o_block_yellow
                0x0036ae98                o_block_yellow_black
                0x0036ce98                w_block
                0x0036fe98                w_block_black
                0x00372e98                l_block_blue
                0x00375e98                l_block_blue_black
                0x00378e98                l_block_orange
                0x0037be98                l_block_orange_black
                0x0037ee98                gameState
                0x0037ef60                currentBlock1
                0x0037ef61                currentBlock2
                0x0037ef62                currentBlock3
                0x0037ef63                currentBlock4
                0x0037ef64                currentBorders
                0x0037ef68                currentBlockImage
                0x0037ef6c                currentBlockImageBlack
                0x0037ef70                currentBlockSizeX
                0x0037ef71                currentBlockSizeY
                0x0037ef72                currentBlockLeftOffset
                0x0037ef73                currentBlockWidth
                0x0037ef74                topLeftBlock
 *.c.o(*)

.igot.plt       0x0037ef80        0x0
 .igot.plt      0x00000000        0x0 build/startmenu.o

.text           0x0037ef80     0x17c8
 *.c.o(.text)
 *(.text)
 .text          0x0037ef80       0xf0 build/startmenu.o
                0x0037ef80                runStartMenu
 .text          0x0037f070       0x8c build/jtag.o
                0x0037f070                EnableJTAG
 .text          0x0037f0fc       0x80 build/framebuffer.o
                0x0037f0fc                InitFrameBuffer
 .text          0x0037f17c      0x97c build/blockinsert.o
                0x0037f17c                insertNewIBeam
                0x0037f2cc                insertNewSBeam
                0x0037f418                insertNewSRBeam
                0x0037f564                insertNewOBeam
                0x0037f6ac                insertNewWBeam
                0x0037f7f8                insertNewLBBeam
                0x0037f944                insertNewLOBeam
 .text          0x0037faf8      0x28c build/draw.o
                0x0037faf8                clearScreen
                0x0037fb24                drawBlock
                0x0037fb88                drawImage
                0x0037fbf0                clearLineScreen
                0x0037fc5c                drawCurrentScore
                0x0037fd20                DrawPixel
                0x0037fd58                GetPixel
 .text          0x0037fd84       0x88 build/write.o
                0x0037fd84                drawString
 .text          0x0037fe0c      0x220 build/snes.o
                0x0037fe0c                Set_Lines
                0x0037fe9c                Read_Data
                0x0037ff1c                Check_Buttons
                0x0037ffb8                Wait
 .text          0x0038002c      0x71c build/main.o
                0x00380054                InsertNewBlock
                0x00380418                xorShift
                0x0038052c                drawIntroScreen
                0x003805b0                resetGameState
                0x003806f0                quitProgram
OUTPUT(build/output.elf elf32-littlearm)

.glue_7         0x00380748        0x0
 .glue_7        0x00000000        0x0 linker stubs

.glue_7t        0x00380748        0x0
 .glue_7t       0x00000000        0x0 linker stubs

.vfp11_veneer   0x00380748        0x0
 .vfp11_veneer  0x00000000        0x0 linker stubs

.v4_bx          0x00380748        0x0
 .v4_bx         0x00000000        0x0 linker stubs

.iplt           0x00380748        0x0
 .iplt          0x00000000        0x0 build/startmenu.o

.rel.dyn        0x00380748        0x0
 .rel.iplt      0x00000000        0x0 build/startmenu.o

.bss            0x00380748        0x0
 .bss           0x00380748        0x0 build/startmenu.o
 .bss           0x00380748        0x0 build/jtag.o
 .bss           0x00380748        0x0 build/framebuffer.o
 .bss           0x00380748        0x0 build/blockinsert.o
 .bss           0x00380748        0x0 build/draw.o
 .bss           0x00380748        0x0 build/write.o
 .bss           0x00380748        0x0 build/snes.o
 .bss           0x00380748        0x0 build/main.o

.ARM.attributes
                0x00000000       0x29
 .ARM.attributes
                0x00000000       0x29 build/startmenu.o
 .ARM.attributes
                0x00000029       0x29 build/jtag.o
 .ARM.attributes
                0x00000052       0x29 build/framebuffer.o
 .ARM.attributes
                0x0000007b       0x29 build/blockinsert.o
 .ARM.attributes
                0x000000a4       0x29 build/draw.o
 .ARM.attributes
                0x000000cd       0x29 build/write.o
 .ARM.attributes
                0x000000f6       0x29 build/snes.o
 .ARM.attributes
                0x0000011f       0x29 build/main.o

.debug_line     0x00000000      0x894
 .debug_line    0x00000000       0x88 build/startmenu.o
 .debug_line    0x00000088       0x61 build/jtag.o
 .debug_line    0x000000e9       0x67 build/framebuffer.o
 .debug_line    0x00000150      0x2c7 build/blockinsert.o
 .debug_line    0x00000417       0xf7 build/draw.o
 .debug_line    0x0000050e       0x63 build/write.o
 .debug_line    0x00000571       0xd8 build/snes.o
 .debug_line    0x00000649      0x24b build/main.o

.debug_info     0x00000000      0x308
 .debug_info    0x00000000       0x64 build/startmenu.o
 .debug_info    0x00000064       0x5f build/jtag.o
 .debug_info    0x000000c3       0x66 build/framebuffer.o
 .debug_info    0x00000129       0x66 build/blockinsert.o
 .debug_info    0x0000018f       0x5f build/draw.o
 .debug_info    0x000001ee       0x60 build/write.o
 .debug_info    0x0000024e       0x5f build/snes.o
 .debug_info    0x000002ad       0x5b build/main.o

.debug_abbrev   0x00000000       0x9e
 .debug_abbrev  0x00000000       0x14 build/startmenu.o
 .debug_abbrev  0x00000014       0x14 build/jtag.o
 .debug_abbrev  0x00000028       0x14 build/framebuffer.o
 .debug_abbrev  0x0000003c       0x14 build/blockinsert.o
 .debug_abbrev  0x00000050       0x14 build/draw.o
 .debug_abbrev  0x00000064       0x14 build/write.o
 .debug_abbrev  0x00000078       0x14 build/snes.o
 .debug_abbrev  0x0000008c       0x12 build/main.o

.debug_aranges  0x00000000      0x108
 .debug_aranges
                0x00000000       0x20 build/startmenu.o
 .debug_aranges
                0x00000020       0x20 build/jtag.o
 .debug_aranges
                0x00000040       0x20 build/framebuffer.o
 .debug_aranges
                0x00000060       0x20 build/blockinsert.o
 .debug_aranges
                0x00000080       0x20 build/draw.o
 .debug_aranges
                0x000000a0       0x20 build/write.o
 .debug_aranges
                0x000000c0       0x20 build/snes.o
 .debug_aranges
                0x000000e0       0x28 build/main.o

.debug_ranges   0x00000000       0x20
 .debug_ranges  0x00000000       0x20 build/main.o
