
build/output.elf:     file format elf32-littlearm


Disassembly of section .init:

00008000 <_start>:
    8000:	ea1c1896 	b	70e260 <main>

Disassembly of section .text:

0070a39c <runStartMenu>:
  70a39c:	e52de004 	push	{lr}		; (str lr, [sp, #-4]!)
  70a3a0:	eb0010da 	bl	70e710 <drawIntroScreen>
  70a3a4:	eb00000f 	bl	70a3e8 <startState1>

0070a3a8 <startUserInputLoop>:
  70a3a8:	eb000d4b 	bl	70d8dc <Read_Data>
  70a3ac:	e3a01001 	mov	r1, #1
  70a3b0:	e1a01401 	lsl	r1, r1, #8
  70a3b4:	e1100001 	tst	r0, r1
  70a3b8:	1a000027 	bne	70a45c <executeChosenOption>
  70a3bc:	e3a01001 	mov	r1, #1

0070a3c0 <checkUp>:
  70a3c0:	e1a01201 	lsl	r1, r1, #4
  70a3c4:	e1100001 	tst	r0, r1
  70a3c8:	0a000001 	beq	70a3d4 <checkDown>
  70a3cc:	eb000005 	bl	70a3e8 <startState1>
  70a3d0:	ea000003 	b	70a3e4 <getNextInput>

0070a3d4 <checkDown>:
  70a3d4:	e1a01081 	lsl	r1, r1, #1
  70a3d8:	e1100001 	tst	r0, r1
  70a3dc:	0a000000 	beq	70a3e4 <getNextInput>
  70a3e0:	eb00000a 	bl	70a410 <startState2>

0070a3e4 <getNextInput>:
  70a3e4:	eaffffef 	b	70a3a8 <startUserInputLoop>

0070a3e8 <startState1>:
  70a3e8:	e52de004 	push	{lr}		; (str lr, [sp, #-4]!)
  70a3ec:	e52d4004 	push	{r4}		; (str r4, [sp, #-4]!)
  70a3f0:	e59f109c 	ldr	r1, [pc, #156]	; 70a494 <haltLoop$+0x4>
  70a3f4:	eb00000d 	bl	70a430 <drawState>
  70a3f8:	e59f0098 	ldr	r0, [pc, #152]	; 70a498 <haltLoop$+0x8>
  70a3fc:	e3a01000 	mov	r1, #0
  70a400:	e5c01000 	strb	r1, [r0]
  70a404:	e49d4004 	pop	{r4}		; (ldr r4, [sp], #4)
  70a408:	e49de004 	pop	{lr}		; (ldr lr, [sp], #4)
  70a40c:	e1a0f00e 	mov	pc, lr

0070a410 <startState2>:
  70a410:	e52de004 	push	{lr}		; (str lr, [sp, #-4]!)
  70a414:	e59f1080 	ldr	r1, [pc, #128]	; 70a49c <haltLoop$+0xc>
  70a418:	eb000004 	bl	70a430 <drawState>
  70a41c:	e59f0074 	ldr	r0, [pc, #116]	; 70a498 <haltLoop$+0x8>
  70a420:	e3a01001 	mov	r1, #1
  70a424:	e5c01000 	strb	r1, [r0]
  70a428:	e49de004 	pop	{lr}		; (ldr lr, [sp], #4)
  70a42c:	e1a0f00e 	mov	pc, lr

0070a430 <drawState>:
  70a430:	e52de004 	push	{lr}		; (str lr, [sp, #-4]!)
  70a434:	e52d4004 	push	{r4}		; (str r4, [sp, #-4]!)
  70a438:	e1a04001 	mov	r4, r1
  70a43c:	e3a00d05 	mov	r0, #320	; 0x140
  70a440:	e3a01e16 	mov	r1, #352	; 0x160
  70a444:	e3a02e19 	mov	r2, #400	; 0x190
  70a448:	e3a030c8 	mov	r3, #200	; 0xc8
  70a44c:	eb000c33 	bl	70d520 <drawImage>
  70a450:	e49d4004 	pop	{r4}		; (ldr r4, [sp], #4)
  70a454:	e49de004 	pop	{lr}		; (ldr lr, [sp], #4)
  70a458:	e1a0f00e 	mov	pc, lr

0070a45c <executeChosenOption>:
  70a45c:	e59f0034 	ldr	r0, [pc, #52]	; 70a498 <haltLoop$+0x8>
  70a460:	e5d00000 	ldrb	r0, [r0]
  70a464:	e3500000 	cmp	r0, #0
  70a468:	0a000001 	beq	70a474 <startGame>
  70a46c:	eaffffff 	b	70a470 <quitGame>

0070a470 <quitGame>:
  70a470:	ea000004 	b	70a488 <clearAndExit>

0070a474 <startGame>:
  70a474:	eb000c05 	bl	70d490 <clearScreen>
  70a478:	eb0010af 	bl	70e73c <drawGameArea>
  70a47c:	eb0010cf 	bl	70e7c0 <resetGameState>
  70a480:	eb001672 	bl	70fe50 <restoreCurrentGame>
  70a484:	eb000f7d 	bl	70e280 <InsertNewBlock>

0070a488 <clearAndExit>:
  70a488:	eb000c00 	bl	70d490 <clearScreen>
  70a48c:	eaffffff 	b	70a490 <haltLoop$>

0070a490 <haltLoop$>:
  70a490:	eafffffe 	b	70a490 <haltLoop$>
  70a494:	00009080 	.word	0x00009080
  70a498:	00057280 	.word	0x00057280
  70a49c:	00030180 	.word	0x00030180

0070a4a0 <rotate5_AB>:
  70a4a0:	e52de004 	push	{lr}		; (str lr, [sp, #-4]!)
  70a4a4:	e59f09dc 	ldr	r0, [pc, #2524]	; 70ae88 <noMove_DA+0x8>
  70a4a8:	e59f29dc 	ldr	r2, [pc, #2524]	; 70ae8c <noMove_DA+0xc>
  70a4ac:	e5d22000 	ldrb	r2, [r2]
  70a4b0:	e1a01002 	mov	r1, r2
  70a4b4:	e2822001 	add	r2, r2, #1
  70a4b8:	eb0002ab 	bl	70af6c <checkIfDifferentLine>
  70a4bc:	e3530000 	cmp	r3, #0
  70a4c0:	1a000092 	bne	70a710 <finishTester>
  70a4c4:	e35200c7 	cmp	r2, #199	; 0xc7
  70a4c8:	ca000090 	bgt	70a710 <finishTester>
  70a4cc:	e3520000 	cmp	r2, #0
  70a4d0:	ba00008e 	blt	70a710 <finishTester>
  70a4d4:	e7d01002 	ldrb	r1, [r0, r2]
  70a4d8:	e3510001 	cmp	r1, #1
  70a4dc:	aa00008b 	bge	70a710 <finishTester>
  70a4e0:	e59f09a0 	ldr	r0, [pc, #2464]	; 70ae88 <noMove_DA+0x8>
  70a4e4:	e59f29a4 	ldr	r2, [pc, #2468]	; 70ae90 <noMove_DA+0x10>
  70a4e8:	e5d22000 	ldrb	r2, [r2]
  70a4ec:	e1a01002 	mov	r1, r2
  70a4f0:	e242200a 	sub	r2, r2, #10
  70a4f4:	e2822002 	add	r2, r2, #2
  70a4f8:	eb00029b 	bl	70af6c <checkIfDifferentLine>
  70a4fc:	e3530000 	cmp	r3, #0
  70a500:	0a000082 	beq	70a710 <finishTester>
  70a504:	e35200c7 	cmp	r2, #199	; 0xc7
  70a508:	ca000080 	bgt	70a710 <finishTester>
  70a50c:	e3520000 	cmp	r2, #0
  70a510:	ba00007e 	blt	70a710 <finishTester>
  70a514:	e7d01002 	ldrb	r1, [r0, r2]
  70a518:	e3510001 	cmp	r1, #1
  70a51c:	aa00007b 	bge	70a710 <finishTester>
  70a520:	e59f0960 	ldr	r0, [pc, #2400]	; 70ae88 <noMove_DA+0x8>
  70a524:	e59f2968 	ldr	r2, [pc, #2408]	; 70ae94 <noMove_DA+0x14>
  70a528:	e5d22000 	ldrb	r2, [r2]
  70a52c:	e1a01002 	mov	r1, r2
  70a530:	e2422001 	sub	r2, r2, #1
  70a534:	e282200a 	add	r2, r2, #10
  70a538:	eb00028b 	bl	70af6c <checkIfDifferentLine>
  70a53c:	e3530000 	cmp	r3, #0
  70a540:	0a000072 	beq	70a710 <finishTester>
  70a544:	e35200c7 	cmp	r2, #199	; 0xc7
  70a548:	ca000070 	bgt	70a710 <finishTester>
  70a54c:	e3520000 	cmp	r2, #0
  70a550:	ba00006e 	blt	70a710 <finishTester>
  70a554:	e7d01002 	ldrb	r1, [r0, r2]
  70a558:	e3510001 	cmp	r1, #1
  70a55c:	aa00006b 	bge	70a710 <finishTester>
  70a560:	e59f0920 	ldr	r0, [pc, #2336]	; 70ae88 <noMove_DA+0x8>
  70a564:	e59f2920 	ldr	r2, [pc, #2336]	; 70ae8c <noMove_DA+0xc>
  70a568:	e5d22000 	ldrb	r2, [r2]
  70a56c:	e3a01000 	mov	r1, #0
  70a570:	e7c01002 	strb	r1, [r0, r2]
  70a574:	e59f090c 	ldr	r0, [pc, #2316]	; 70ae88 <noMove_DA+0x8>
  70a578:	e59f2910 	ldr	r2, [pc, #2320]	; 70ae90 <noMove_DA+0x10>
  70a57c:	e5d22000 	ldrb	r2, [r2]
  70a580:	e3a01000 	mov	r1, #0
  70a584:	e7c01002 	strb	r1, [r0, r2]
  70a588:	e59f08f8 	ldr	r0, [pc, #2296]	; 70ae88 <noMove_DA+0x8>
  70a58c:	e59f2904 	ldr	r2, [pc, #2308]	; 70ae98 <noMove_DA+0x18>
  70a590:	e5d22000 	ldrb	r2, [r2]
  70a594:	e3a01000 	mov	r1, #0
  70a598:	e7c01002 	strb	r1, [r0, r2]
  70a59c:	e59f08e4 	ldr	r0, [pc, #2276]	; 70ae88 <noMove_DA+0x8>
  70a5a0:	e59f28ec 	ldr	r2, [pc, #2284]	; 70ae94 <noMove_DA+0x14>
  70a5a4:	e5d22000 	ldrb	r2, [r2]
  70a5a8:	e3a01000 	mov	r1, #0
  70a5ac:	e7c01002 	strb	r1, [r0, r2]
  70a5b0:	eb001598 	bl	70fc18 <drawSquareBlock>
  70a5b4:	e59f08d0 	ldr	r0, [pc, #2256]	; 70ae8c <noMove_DA+0xc>
  70a5b8:	e5d02000 	ldrb	r2, [r0]
  70a5bc:	e2822001 	add	r2, r2, #1
  70a5c0:	e5c02000 	strb	r2, [r0]
  70a5c4:	e59f08c4 	ldr	r0, [pc, #2244]	; 70ae90 <noMove_DA+0x10>
  70a5c8:	e5d02000 	ldrb	r2, [r0]
  70a5cc:	e242200a 	sub	r2, r2, #10
  70a5d0:	e2822002 	add	r2, r2, #2
  70a5d4:	e5c02000 	strb	r2, [r0]
  70a5d8:	e59f08b4 	ldr	r0, [pc, #2228]	; 70ae94 <noMove_DA+0x14>
  70a5dc:	e5d02000 	ldrb	r2, [r0]
  70a5e0:	e282200a 	add	r2, r2, #10
  70a5e4:	e2422001 	sub	r2, r2, #1
  70a5e8:	e5c02000 	strb	r2, [r0]
  70a5ec:	e59f38a8 	ldr	r3, [pc, #2216]	; 70ae9c <noMove_DA+0x1c>
  70a5f0:	e5933000 	ldr	r3, [r3]
  70a5f4:	e59f288c 	ldr	r2, [pc, #2188]	; 70ae88 <noMove_DA+0x8>
  70a5f8:	e59f088c 	ldr	r0, [pc, #2188]	; 70ae8c <noMove_DA+0xc>
  70a5fc:	e5d01000 	ldrb	r1, [r0]
  70a600:	e7c23001 	strb	r3, [r2, r1]
  70a604:	e59f0884 	ldr	r0, [pc, #2180]	; 70ae90 <noMove_DA+0x10>
  70a608:	e5d01000 	ldrb	r1, [r0]
  70a60c:	e7c23001 	strb	r3, [r2, r1]
  70a610:	e59f0880 	ldr	r0, [pc, #2176]	; 70ae98 <noMove_DA+0x18>
  70a614:	e5d01000 	ldrb	r1, [r0]
  70a618:	e7c23001 	strb	r3, [r2, r1]
  70a61c:	e59f0870 	ldr	r0, [pc, #2160]	; 70ae94 <noMove_DA+0x14>
  70a620:	e5d01000 	ldrb	r1, [r0]
  70a624:	e7c23001 	strb	r3, [r2, r1]
  70a628:	e59f0870 	ldr	r0, [pc, #2160]	; 70aea0 <noMove_DA+0x20>
  70a62c:	e3a010ff 	mov	r1, #255	; 0xff
  70a630:	e5c01000 	strb	r1, [r0]
  70a634:	e59f1854 	ldr	r1, [pc, #2132]	; 70ae90 <noMove_DA+0x10>
  70a638:	e5d11000 	ldrb	r1, [r1]
  70a63c:	e5c01001 	strb	r1, [r0, #1]
  70a640:	e3a010ff 	mov	r1, #255	; 0xff
  70a644:	e5c01002 	strb	r1, [r0, #2]
  70a648:	e59f1844 	ldr	r1, [pc, #2116]	; 70ae94 <noMove_DA+0x14>
  70a64c:	e5d11000 	ldrb	r1, [r1]
  70a650:	e5c01003 	strb	r1, [r0, #3]
  70a654:	e59f0848 	ldr	r0, [pc, #2120]	; 70aea4 <noMove_DA+0x24>
  70a658:	e59f182c 	ldr	r1, [pc, #2092]	; 70ae8c <noMove_DA+0xc>
  70a65c:	e5d11000 	ldrb	r1, [r1]
  70a660:	e5c01000 	strb	r1, [r0]
  70a664:	e3a010ff 	mov	r1, #255	; 0xff
  70a668:	e5c01001 	strb	r1, [r0, #1]
  70a66c:	e59f1824 	ldr	r1, [pc, #2084]	; 70ae98 <noMove_DA+0x18>
  70a670:	e5d11000 	ldrb	r1, [r1]
  70a674:	e5c01002 	strb	r1, [r0, #2]
  70a678:	e59f1814 	ldr	r1, [pc, #2068]	; 70ae94 <noMove_DA+0x14>
  70a67c:	e5d11000 	ldrb	r1, [r1]
  70a680:	e5c01003 	strb	r1, [r0, #3]
  70a684:	e59f081c 	ldr	r0, [pc, #2076]	; 70aea8 <noMove_DA+0x28>
  70a688:	e3a010ff 	mov	r1, #255	; 0xff
  70a68c:	e5c01000 	strb	r1, [r0]
  70a690:	e59f17f8 	ldr	r1, [pc, #2040]	; 70ae90 <noMove_DA+0x10>
  70a694:	e5d11000 	ldrb	r1, [r1]
  70a698:	e5c01001 	strb	r1, [r0, #1]
  70a69c:	e59f17f4 	ldr	r1, [pc, #2036]	; 70ae98 <noMove_DA+0x18>
  70a6a0:	e5d11000 	ldrb	r1, [r1]
  70a6a4:	e5c01002 	strb	r1, [r0, #2]
  70a6a8:	e59f17e4 	ldr	r1, [pc, #2020]	; 70ae94 <noMove_DA+0x14>
  70a6ac:	e5d11000 	ldrb	r1, [r1]
  70a6b0:	e5c01003 	strb	r1, [r0, #3]
  70a6b4:	e59f37f0 	ldr	r3, [pc, #2032]	; 70aeac <noMove_DA+0x2c>
  70a6b8:	e59f27f0 	ldr	r2, [pc, #2032]	; 70aeb0 <noMove_DA+0x30>
  70a6bc:	e5823000 	str	r3, [r2]
  70a6c0:	e59f37ec 	ldr	r3, [pc, #2028]	; 70aeb4 <noMove_DA+0x34>
  70a6c4:	e59f27ec 	ldr	r2, [pc, #2028]	; 70aeb8 <noMove_DA+0x38>
  70a6c8:	e5823000 	str	r3, [r2]
  70a6cc:	e3a03040 	mov	r3, #64	; 0x40
  70a6d0:	e59f27e4 	ldr	r2, [pc, #2020]	; 70aebc <noMove_DA+0x3c>
  70a6d4:	e5c23000 	strb	r3, [r2]
  70a6d8:	e3a03060 	mov	r3, #96	; 0x60
  70a6dc:	e59f57dc 	ldr	r5, [pc, #2012]	; 70aec0 <noMove_DA+0x40>
  70a6e0:	e5c53000 	strb	r3, [r5]
  70a6e4:	e59f07d8 	ldr	r0, [pc, #2008]	; 70aec4 <noMove_DA+0x44>
  70a6e8:	e5d01000 	ldrb	r1, [r0]
  70a6ec:	e2811001 	add	r1, r1, #1
  70a6f0:	e5c01000 	strb	r1, [r0]
  70a6f4:	e59f07cc 	ldr	r0, [pc, #1996]	; 70aec8 <noMove_DA+0x48>
  70a6f8:	e3a01002 	mov	r1, #2
  70a6fc:	e5c01000 	strb	r1, [r0]
  70a700:	e59f07c4 	ldr	r0, [pc, #1988]	; 70aecc <noMove_DA+0x4c>
  70a704:	e3a01001 	mov	r1, #1
  70a708:	e5c01000 	strb	r1, [r0]
  70a70c:	eb001541 	bl	70fc18 <drawSquareBlock>

0070a710 <finishTester>:
  70a710:	e49de004 	pop	{lr}		; (ldr lr, [sp], #4)
  70a714:	e1a0f00e 	mov	pc, lr

0070a718 <rotate5_BC>:
  70a718:	e52de004 	push	{lr}		; (str lr, [sp, #-4]!)
  70a71c:	e59f0764 	ldr	r0, [pc, #1892]	; 70ae88 <noMove_DA+0x8>
  70a720:	e59f2764 	ldr	r2, [pc, #1892]	; 70ae8c <noMove_DA+0xc>
  70a724:	e5d22000 	ldrb	r2, [r2]
  70a728:	e1a01002 	mov	r1, r2
  70a72c:	e282200a 	add	r2, r2, #10
  70a730:	e2422001 	sub	r2, r2, #1
  70a734:	eb00020c 	bl	70af6c <checkIfDifferentLine>
  70a738:	e3530000 	cmp	r3, #0
  70a73c:	0a000093 	beq	70a990 <noMove_BC>
  70a740:	e35200c7 	cmp	r2, #199	; 0xc7
  70a744:	ca000091 	bgt	70a990 <noMove_BC>
  70a748:	e3520000 	cmp	r2, #0
  70a74c:	ba00008f 	blt	70a990 <noMove_BC>
  70a750:	e7d01002 	ldrb	r1, [r0, r2]
  70a754:	e3510001 	cmp	r1, #1
  70a758:	aa00008c 	bge	70a990 <noMove_BC>
  70a75c:	e59f0724 	ldr	r0, [pc, #1828]	; 70ae88 <noMove_DA+0x8>
  70a760:	e59f2730 	ldr	r2, [pc, #1840]	; 70ae98 <noMove_DA+0x18>
  70a764:	e5d22000 	ldrb	r2, [r2]
  70a768:	e1a01002 	mov	r1, r2
  70a76c:	e2822001 	add	r2, r2, #1
  70a770:	eb0001fd 	bl	70af6c <checkIfDifferentLine>
  70a774:	e3530000 	cmp	r3, #0
  70a778:	1a000084 	bne	70a990 <noMove_BC>
  70a77c:	e35200c7 	cmp	r2, #199	; 0xc7
  70a780:	ca000082 	bgt	70a990 <noMove_BC>
  70a784:	e3520000 	cmp	r2, #0
  70a788:	ba000080 	blt	70a990 <noMove_BC>
  70a78c:	e7d01002 	ldrb	r1, [r0, r2]
  70a790:	e3510001 	cmp	r1, #1
  70a794:	aa00007d 	bge	70a990 <noMove_BC>
  70a798:	e59f06e8 	ldr	r0, [pc, #1768]	; 70ae88 <noMove_DA+0x8>
  70a79c:	e59f26f0 	ldr	r2, [pc, #1776]	; 70ae94 <noMove_DA+0x14>
  70a7a0:	e5d22000 	ldrb	r2, [r2]
  70a7a4:	e1a01002 	mov	r1, r2
  70a7a8:	e2822001 	add	r2, r2, #1
  70a7ac:	eb0001ee 	bl	70af6c <checkIfDifferentLine>
  70a7b0:	e3530000 	cmp	r3, #0
  70a7b4:	1a000075 	bne	70a990 <noMove_BC>
  70a7b8:	e35200c7 	cmp	r2, #199	; 0xc7
  70a7bc:	ca000073 	bgt	70a990 <noMove_BC>
  70a7c0:	e3520000 	cmp	r2, #0
  70a7c4:	ba000071 	blt	70a990 <noMove_BC>
  70a7c8:	e7d01002 	ldrb	r1, [r0, r2]
  70a7cc:	e3510001 	cmp	r1, #1
  70a7d0:	aa00006e 	bge	70a990 <noMove_BC>
  70a7d4:	e59f06ac 	ldr	r0, [pc, #1708]	; 70ae88 <noMove_DA+0x8>
  70a7d8:	e59f26ac 	ldr	r2, [pc, #1708]	; 70ae8c <noMove_DA+0xc>
  70a7dc:	e5d22000 	ldrb	r2, [r2]
  70a7e0:	e3a01000 	mov	r1, #0
  70a7e4:	e7c01002 	strb	r1, [r0, r2]
  70a7e8:	e59f0698 	ldr	r0, [pc, #1688]	; 70ae88 <noMove_DA+0x8>
  70a7ec:	e59f269c 	ldr	r2, [pc, #1692]	; 70ae90 <noMove_DA+0x10>
  70a7f0:	e5d22000 	ldrb	r2, [r2]
  70a7f4:	e3a01000 	mov	r1, #0
  70a7f8:	e7c01002 	strb	r1, [r0, r2]
  70a7fc:	e59f0684 	ldr	r0, [pc, #1668]	; 70ae88 <noMove_DA+0x8>
  70a800:	e59f2690 	ldr	r2, [pc, #1680]	; 70ae98 <noMove_DA+0x18>
  70a804:	e5d22000 	ldrb	r2, [r2]
  70a808:	e3a01000 	mov	r1, #0
  70a80c:	e7c01002 	strb	r1, [r0, r2]
  70a810:	e59f0670 	ldr	r0, [pc, #1648]	; 70ae88 <noMove_DA+0x8>
  70a814:	e59f2678 	ldr	r2, [pc, #1656]	; 70ae94 <noMove_DA+0x14>
  70a818:	e5d22000 	ldrb	r2, [r2]
  70a81c:	e3a01000 	mov	r1, #0
  70a820:	e7c01002 	strb	r1, [r0, r2]
  70a824:	eb0014fb 	bl	70fc18 <drawSquareBlock>
  70a828:	e59f065c 	ldr	r0, [pc, #1628]	; 70ae8c <noMove_DA+0xc>
  70a82c:	e5d02000 	ldrb	r2, [r0]
  70a830:	e282200a 	add	r2, r2, #10
  70a834:	e2422001 	sub	r2, r2, #1
  70a838:	e5c02000 	strb	r2, [r0]
  70a83c:	e59f064c 	ldr	r0, [pc, #1612]	; 70ae90 <noMove_DA+0x10>
  70a840:	e5d02000 	ldrb	r2, [r0]
  70a844:	e282200a 	add	r2, r2, #10
  70a848:	e2422001 	sub	r2, r2, #1
  70a84c:	e5c02000 	strb	r2, [r0]
  70a850:	e59f0640 	ldr	r0, [pc, #1600]	; 70ae98 <noMove_DA+0x18>
  70a854:	e5d02000 	ldrb	r2, [r0]
  70a858:	e2822001 	add	r2, r2, #1
  70a85c:	e5c02000 	strb	r2, [r0]
  70a860:	e59f062c 	ldr	r0, [pc, #1580]	; 70ae94 <noMove_DA+0x14>
  70a864:	e5d02000 	ldrb	r2, [r0]
  70a868:	e2822001 	add	r2, r2, #1
  70a86c:	e5c02000 	strb	r2, [r0]
  70a870:	e59f3624 	ldr	r3, [pc, #1572]	; 70ae9c <noMove_DA+0x1c>
  70a874:	e5d33000 	ldrb	r3, [r3]
  70a878:	e59f2608 	ldr	r2, [pc, #1544]	; 70ae88 <noMove_DA+0x8>
  70a87c:	e59f0608 	ldr	r0, [pc, #1544]	; 70ae8c <noMove_DA+0xc>
  70a880:	e5d01000 	ldrb	r1, [r0]
  70a884:	e7c23001 	strb	r3, [r2, r1]
  70a888:	e59f0600 	ldr	r0, [pc, #1536]	; 70ae90 <noMove_DA+0x10>
  70a88c:	e5d01000 	ldrb	r1, [r0]
  70a890:	e7c23001 	strb	r3, [r2, r1]
  70a894:	e59f05fc 	ldr	r0, [pc, #1532]	; 70ae98 <noMove_DA+0x18>
  70a898:	e5d01000 	ldrb	r1, [r0]
  70a89c:	e7c23001 	strb	r3, [r2, r1]
  70a8a0:	e59f05ec 	ldr	r0, [pc, #1516]	; 70ae94 <noMove_DA+0x14>
  70a8a4:	e5d01000 	ldrb	r1, [r0]
  70a8a8:	e7c23001 	strb	r3, [r2, r1]
  70a8ac:	e59f05ec 	ldr	r0, [pc, #1516]	; 70aea0 <noMove_DA+0x20>
  70a8b0:	e59f35d4 	ldr	r3, [pc, #1492]	; 70ae8c <noMove_DA+0xc>
  70a8b4:	e5d31000 	ldrb	r1, [r3]
  70a8b8:	e5c01000 	strb	r1, [r0]
  70a8bc:	e59f35cc 	ldr	r3, [pc, #1484]	; 70ae90 <noMove_DA+0x10>
  70a8c0:	e5d31000 	ldrb	r1, [r3]
  70a8c4:	e5c01001 	strb	r1, [r0, #1]
  70a8c8:	e3a010ff 	mov	r1, #255	; 0xff
  70a8cc:	e5c01002 	strb	r1, [r0, #2]
  70a8d0:	e59f35bc 	ldr	r3, [pc, #1468]	; 70ae94 <noMove_DA+0x14>
  70a8d4:	e5d31000 	ldrb	r1, [r3]
  70a8d8:	e5c01003 	strb	r1, [r0, #3]
  70a8dc:	e59f05c0 	ldr	r0, [pc, #1472]	; 70aea4 <noMove_DA+0x24>
  70a8e0:	e59f35a4 	ldr	r3, [pc, #1444]	; 70ae8c <noMove_DA+0xc>
  70a8e4:	e5d31000 	ldrb	r1, [r3]
  70a8e8:	e5c01000 	strb	r1, [r0]
  70a8ec:	e3a010ff 	mov	r1, #255	; 0xff
  70a8f0:	e5c01001 	strb	r1, [r0, #1]
  70a8f4:	e3a010ff 	mov	r1, #255	; 0xff
  70a8f8:	e5c01002 	strb	r1, [r0, #2]
  70a8fc:	e59f3590 	ldr	r3, [pc, #1424]	; 70ae94 <noMove_DA+0x14>
  70a900:	e5d31000 	ldrb	r1, [r3]
  70a904:	e5c01003 	strb	r1, [r0, #3]
  70a908:	e59f0598 	ldr	r0, [pc, #1432]	; 70aea8 <noMove_DA+0x28>
  70a90c:	e59f3584 	ldr	r3, [pc, #1412]	; 70ae98 <noMove_DA+0x18>
  70a910:	e5d31000 	ldrb	r1, [r3]
  70a914:	e5c01000 	strb	r1, [r0]
  70a918:	e3a010ff 	mov	r1, #255	; 0xff
  70a91c:	e5c01001 	strb	r1, [r0, #1]
  70a920:	e3a010ff 	mov	r1, #255	; 0xff
  70a924:	e5c01002 	strb	r1, [r0, #2]
  70a928:	e59f3564 	ldr	r3, [pc, #1380]	; 70ae94 <noMove_DA+0x14>
  70a92c:	e5d31000 	ldrb	r1, [r3]
  70a930:	e5c01003 	strb	r1, [r0, #3]
  70a934:	e59f3594 	ldr	r3, [pc, #1428]	; 70aed0 <noMove_DA+0x50>
  70a938:	e59f2570 	ldr	r2, [pc, #1392]	; 70aeb0 <noMove_DA+0x30>
  70a93c:	e5823000 	str	r3, [r2]
  70a940:	e59f358c 	ldr	r3, [pc, #1420]	; 70aed4 <noMove_DA+0x54>
  70a944:	e59f256c 	ldr	r2, [pc, #1388]	; 70aeb8 <noMove_DA+0x38>
  70a948:	e5823000 	str	r3, [r2]
  70a94c:	e3a03060 	mov	r3, #96	; 0x60
  70a950:	e59f2564 	ldr	r2, [pc, #1380]	; 70aebc <noMove_DA+0x3c>
  70a954:	e5c23000 	strb	r3, [r2]
  70a958:	e3a03040 	mov	r3, #64	; 0x40
  70a95c:	e59f555c 	ldr	r5, [pc, #1372]	; 70aec0 <noMove_DA+0x40>
  70a960:	e5c53000 	strb	r3, [r5]
  70a964:	e59f0558 	ldr	r0, [pc, #1368]	; 70aec4 <noMove_DA+0x44>
  70a968:	e5d01000 	ldrb	r1, [r0]
  70a96c:	e2411001 	sub	r1, r1, #1
  70a970:	e5c01000 	strb	r1, [r0]
  70a974:	e59f054c 	ldr	r0, [pc, #1356]	; 70aec8 <noMove_DA+0x48>
  70a978:	e3a01003 	mov	r1, #3
  70a97c:	e5c01000 	strb	r1, [r0]
  70a980:	e59f0544 	ldr	r0, [pc, #1348]	; 70aecc <noMove_DA+0x4c>
  70a984:	e3a01002 	mov	r1, #2
  70a988:	e5c01000 	strb	r1, [r0]
  70a98c:	eb0014a1 	bl	70fc18 <drawSquareBlock>

0070a990 <noMove_BC>:
  70a990:	e49de004 	pop	{lr}		; (ldr lr, [sp], #4)
  70a994:	e1a0f00e 	mov	pc, lr

0070a998 <rotate5_CD>:
  70a998:	e52de004 	push	{lr}		; (str lr, [sp, #-4]!)
  70a99c:	e59f04e4 	ldr	r0, [pc, #1252]	; 70ae88 <noMove_DA+0x8>
  70a9a0:	e59f24e4 	ldr	r2, [pc, #1252]	; 70ae8c <noMove_DA+0xc>
  70a9a4:	e5d22000 	ldrb	r2, [r2]
  70a9a8:	e1a01002 	mov	r1, r2
  70a9ac:	e242200a 	sub	r2, r2, #10
  70a9b0:	e2822001 	add	r2, r2, #1
  70a9b4:	eb00016c 	bl	70af6c <checkIfDifferentLine>
  70a9b8:	e3530000 	cmp	r3, #0
  70a9bc:	0affff53 	beq	70a710 <finishTester>
  70a9c0:	e35200c7 	cmp	r2, #199	; 0xc7
  70a9c4:	ca00008f 	bgt	70ac08 <noMove_CD>
  70a9c8:	e3520000 	cmp	r2, #0
  70a9cc:	ba00008d 	blt	70ac08 <noMove_CD>
  70a9d0:	e7d01002 	ldrb	r1, [r0, r2]
  70a9d4:	e3510001 	cmp	r1, #1
  70a9d8:	aa00008a 	bge	70ac08 <noMove_CD>
  70a9dc:	e59f04a4 	ldr	r0, [pc, #1188]	; 70ae88 <noMove_DA+0x8>
  70a9e0:	e59f24b0 	ldr	r2, [pc, #1200]	; 70ae98 <noMove_DA+0x18>
  70a9e4:	e5d22000 	ldrb	r2, [r2]
  70a9e8:	e1a01002 	mov	r1, r2
  70a9ec:	e282200a 	add	r2, r2, #10
  70a9f0:	e2422002 	sub	r2, r2, #2
  70a9f4:	eb00015c 	bl	70af6c <checkIfDifferentLine>
  70a9f8:	e3530000 	cmp	r3, #0
  70a9fc:	0affff43 	beq	70a710 <finishTester>
  70aa00:	e35200c7 	cmp	r2, #199	; 0xc7
  70aa04:	ca00007f 	bgt	70ac08 <noMove_CD>
  70aa08:	e3520000 	cmp	r2, #0
  70aa0c:	ba00007d 	blt	70ac08 <noMove_CD>
  70aa10:	e7d01002 	ldrb	r1, [r0, r2]
  70aa14:	e3510001 	cmp	r1, #1
  70aa18:	aa00007a 	bge	70ac08 <noMove_CD>
  70aa1c:	e59f0464 	ldr	r0, [pc, #1124]	; 70ae88 <noMove_DA+0x8>
  70aa20:	e59f246c 	ldr	r2, [pc, #1132]	; 70ae94 <noMove_DA+0x14>
  70aa24:	e5d22000 	ldrb	r2, [r2]
  70aa28:	e1a01002 	mov	r1, r2
  70aa2c:	e2422001 	sub	r2, r2, #1
  70aa30:	eb00014d 	bl	70af6c <checkIfDifferentLine>
  70aa34:	e3530000 	cmp	r3, #0
  70aa38:	1affff34 	bne	70a710 <finishTester>
  70aa3c:	e35200c7 	cmp	r2, #199	; 0xc7
  70aa40:	ca000070 	bgt	70ac08 <noMove_CD>
  70aa44:	e3520000 	cmp	r2, #0
  70aa48:	ba00006e 	blt	70ac08 <noMove_CD>
  70aa4c:	e7d01002 	ldrb	r1, [r0, r2]
  70aa50:	e3510001 	cmp	r1, #1
  70aa54:	aa00006b 	bge	70ac08 <noMove_CD>
  70aa58:	e59f0428 	ldr	r0, [pc, #1064]	; 70ae88 <noMove_DA+0x8>
  70aa5c:	e59f2428 	ldr	r2, [pc, #1064]	; 70ae8c <noMove_DA+0xc>
  70aa60:	e5d22000 	ldrb	r2, [r2]
  70aa64:	e3a01000 	mov	r1, #0
  70aa68:	e7c01002 	strb	r1, [r0, r2]
  70aa6c:	e59f0414 	ldr	r0, [pc, #1044]	; 70ae88 <noMove_DA+0x8>
  70aa70:	e59f2418 	ldr	r2, [pc, #1048]	; 70ae90 <noMove_DA+0x10>
  70aa74:	e5d22000 	ldrb	r2, [r2]
  70aa78:	e3a01000 	mov	r1, #0
  70aa7c:	e7c01002 	strb	r1, [r0, r2]
  70aa80:	e59f0400 	ldr	r0, [pc, #1024]	; 70ae88 <noMove_DA+0x8>
  70aa84:	e59f240c 	ldr	r2, [pc, #1036]	; 70ae98 <noMove_DA+0x18>
  70aa88:	e5d22000 	ldrb	r2, [r2]
  70aa8c:	e3a01000 	mov	r1, #0
  70aa90:	e7c01002 	strb	r1, [r0, r2]
  70aa94:	e59f03ec 	ldr	r0, [pc, #1004]	; 70ae88 <noMove_DA+0x8>
  70aa98:	e59f23f4 	ldr	r2, [pc, #1012]	; 70ae94 <noMove_DA+0x14>
  70aa9c:	e5d22000 	ldrb	r2, [r2]
  70aaa0:	e3a01000 	mov	r1, #0
  70aaa4:	e7c01002 	strb	r1, [r0, r2]
  70aaa8:	eb00145a 	bl	70fc18 <drawSquareBlock>
  70aaac:	e59f03d8 	ldr	r0, [pc, #984]	; 70ae8c <noMove_DA+0xc>
  70aab0:	e5d02000 	ldrb	r2, [r0]
  70aab4:	e2822001 	add	r2, r2, #1
  70aab8:	e242200a 	sub	r2, r2, #10
  70aabc:	e5c02000 	strb	r2, [r0]
  70aac0:	e59f03c8 	ldr	r0, [pc, #968]	; 70ae90 <noMove_DA+0x10>
  70aac4:	e5d02000 	ldrb	r2, [r0]
  70aac8:	e59f03c8 	ldr	r0, [pc, #968]	; 70ae98 <noMove_DA+0x18>
  70aacc:	e5d02000 	ldrb	r2, [r0]
  70aad0:	e282200a 	add	r2, r2, #10
  70aad4:	e2422002 	sub	r2, r2, #2
  70aad8:	e5c02000 	strb	r2, [r0]
  70aadc:	e59f03b0 	ldr	r0, [pc, #944]	; 70ae94 <noMove_DA+0x14>
  70aae0:	e5d02000 	ldrb	r2, [r0]
  70aae4:	e2422001 	sub	r2, r2, #1
  70aae8:	e5c02000 	strb	r2, [r0]
  70aaec:	e59f33a8 	ldr	r3, [pc, #936]	; 70ae9c <noMove_DA+0x1c>
  70aaf0:	e5d33000 	ldrb	r3, [r3]
  70aaf4:	e59f238c 	ldr	r2, [pc, #908]	; 70ae88 <noMove_DA+0x8>
  70aaf8:	e59f038c 	ldr	r0, [pc, #908]	; 70ae8c <noMove_DA+0xc>
  70aafc:	e5d01000 	ldrb	r1, [r0]
  70ab00:	e7c23001 	strb	r3, [r2, r1]
  70ab04:	e59f0384 	ldr	r0, [pc, #900]	; 70ae90 <noMove_DA+0x10>
  70ab08:	e5d01000 	ldrb	r1, [r0]
  70ab0c:	e7c23001 	strb	r3, [r2, r1]
  70ab10:	e59f0380 	ldr	r0, [pc, #896]	; 70ae98 <noMove_DA+0x18>
  70ab14:	e5d01000 	ldrb	r1, [r0]
  70ab18:	e7c23001 	strb	r3, [r2, r1]
  70ab1c:	e59f0370 	ldr	r0, [pc, #880]	; 70ae94 <noMove_DA+0x14>
  70ab20:	e5d01000 	ldrb	r1, [r0]
  70ab24:	e7c23001 	strb	r3, [r2, r1]
  70ab28:	e59f0370 	ldr	r0, [pc, #880]	; 70aea0 <noMove_DA+0x20>
  70ab2c:	e3a010ff 	mov	r1, #255	; 0xff
  70ab30:	e5c01000 	strb	r1, [r0]
  70ab34:	e3a010ff 	mov	r1, #255	; 0xff
  70ab38:	e5c01001 	strb	r1, [r0, #1]
  70ab3c:	e59f3354 	ldr	r3, [pc, #852]	; 70ae98 <noMove_DA+0x18>
  70ab40:	e5d31000 	ldrb	r1, [r3]
  70ab44:	e5c01002 	strb	r1, [r0, #2]
  70ab48:	e59f3344 	ldr	r3, [pc, #836]	; 70ae94 <noMove_DA+0x14>
  70ab4c:	e5d31000 	ldrb	r1, [r3]
  70ab50:	e5c01003 	strb	r1, [r0, #3]
  70ab54:	e59f0348 	ldr	r0, [pc, #840]	; 70aea4 <noMove_DA+0x24>
  70ab58:	e59f332c 	ldr	r3, [pc, #812]	; 70ae8c <noMove_DA+0xc>
  70ab5c:	e5931000 	ldr	r1, [r3]
  70ab60:	e5c01000 	strb	r1, [r0]
  70ab64:	e59f3324 	ldr	r3, [pc, #804]	; 70ae90 <noMove_DA+0x10>
  70ab68:	e5d31000 	ldrb	r1, [r3]
  70ab6c:	e5c01001 	strb	r1, [r0, #1]
  70ab70:	e59f3320 	ldr	r3, [pc, #800]	; 70ae98 <noMove_DA+0x18>
  70ab74:	e5d31000 	ldrb	r1, [r3]
  70ab78:	e5c01002 	strb	r1, [r0, #2]
  70ab7c:	e3a010ff 	mov	r1, #255	; 0xff
  70ab80:	e5c01003 	strb	r1, [r0, #3]
  70ab84:	e59f031c 	ldr	r0, [pc, #796]	; 70aea8 <noMove_DA+0x28>
  70ab88:	e59f32fc 	ldr	r3, [pc, #764]	; 70ae8c <noMove_DA+0xc>
  70ab8c:	e5d31000 	ldrb	r1, [r3]
  70ab90:	e5c01000 	strb	r1, [r0]
  70ab94:	e59f32f4 	ldr	r3, [pc, #756]	; 70ae90 <noMove_DA+0x10>
  70ab98:	e5d31000 	ldrb	r1, [r3]
  70ab9c:	e5c01001 	strb	r1, [r0, #1]
  70aba0:	e3a010ff 	mov	r1, #255	; 0xff
  70aba4:	e5c01002 	strb	r1, [r0, #2]
  70aba8:	e59f32e4 	ldr	r3, [pc, #740]	; 70ae94 <noMove_DA+0x14>
  70abac:	e5d31000 	ldrb	r1, [r3]
  70abb0:	e5c01003 	strb	r1, [r0, #3]
  70abb4:	e59f331c 	ldr	r3, [pc, #796]	; 70aed8 <noMove_DA+0x58>
  70abb8:	e59f22f0 	ldr	r2, [pc, #752]	; 70aeb0 <noMove_DA+0x30>
  70abbc:	e5823000 	str	r3, [r2]
  70abc0:	e59f3314 	ldr	r3, [pc, #788]	; 70aedc <noMove_DA+0x5c>
  70abc4:	e59f22ec 	ldr	r2, [pc, #748]	; 70aeb8 <noMove_DA+0x38>
  70abc8:	e5823000 	str	r3, [r2]
  70abcc:	e3a03040 	mov	r3, #64	; 0x40
  70abd0:	e59f22e4 	ldr	r2, [pc, #740]	; 70aebc <noMove_DA+0x3c>
  70abd4:	e5c23000 	strb	r3, [r2]
  70abd8:	e3a03060 	mov	r3, #96	; 0x60
  70abdc:	e59f52dc 	ldr	r5, [pc, #732]	; 70aec0 <noMove_DA+0x40>
  70abe0:	e5c53000 	strb	r3, [r5]
  70abe4:	e59f02d8 	ldr	r0, [pc, #728]	; 70aec4 <noMove_DA+0x44>
  70abe8:	e5d01000 	ldrb	r1, [r0]
  70abec:	e59f02d4 	ldr	r0, [pc, #724]	; 70aec8 <noMove_DA+0x48>
  70abf0:	e3a01002 	mov	r1, #2
  70abf4:	e5c01000 	strb	r1, [r0]
  70abf8:	e59f02cc 	ldr	r0, [pc, #716]	; 70aecc <noMove_DA+0x4c>
  70abfc:	e3a01003 	mov	r1, #3
  70ac00:	e5c01000 	strb	r1, [r0]
  70ac04:	eb001403 	bl	70fc18 <drawSquareBlock>

0070ac08 <noMove_CD>:
  70ac08:	e49de004 	pop	{lr}		; (ldr lr, [sp], #4)
  70ac0c:	e1a0f00e 	mov	pc, lr

0070ac10 <rotate5_DA>:
  70ac10:	e52de004 	push	{lr}		; (str lr, [sp, #-4]!)
  70ac14:	e59f026c 	ldr	r0, [pc, #620]	; 70ae88 <noMove_DA+0x8>
  70ac18:	e59f226c 	ldr	r2, [pc, #620]	; 70ae8c <noMove_DA+0xc>
  70ac1c:	e5d22000 	ldrb	r2, [r2]
  70ac20:	e1a01002 	mov	r1, r2
  70ac24:	e2422001 	sub	r2, r2, #1
  70ac28:	eb0000cf 	bl	70af6c <checkIfDifferentLine>
  70ac2c:	e3530000 	cmp	r3, #0
  70ac30:	1afffeb6 	bne	70a710 <finishTester>
  70ac34:	e35200c7 	cmp	r2, #199	; 0xc7
  70ac38:	ca000090 	bgt	70ae80 <noMove_DA>
  70ac3c:	e3520000 	cmp	r2, #0
  70ac40:	ba00008e 	blt	70ae80 <noMove_DA>
  70ac44:	e7d01002 	ldrb	r1, [r0, r2]
  70ac48:	e3510001 	cmp	r1, #1
  70ac4c:	aa00008b 	bge	70ae80 <noMove_DA>
  70ac50:	e59f0230 	ldr	r0, [pc, #560]	; 70ae88 <noMove_DA+0x8>
  70ac54:	e59f2234 	ldr	r2, [pc, #564]	; 70ae90 <noMove_DA+0x10>
  70ac58:	e5d22000 	ldrb	r2, [r2]
  70ac5c:	e1a01002 	mov	r1, r2
  70ac60:	e2422001 	sub	r2, r2, #1
  70ac64:	eb0000c0 	bl	70af6c <checkIfDifferentLine>
  70ac68:	e3530000 	cmp	r3, #0
  70ac6c:	1afffea7 	bne	70a710 <finishTester>
  70ac70:	e35200c7 	cmp	r2, #199	; 0xc7
  70ac74:	ca000081 	bgt	70ae80 <noMove_DA>
  70ac78:	e3520000 	cmp	r2, #0
  70ac7c:	ba00007f 	blt	70ae80 <noMove_DA>
  70ac80:	e7d01002 	ldrb	r1, [r0, r2]
  70ac84:	e3510001 	cmp	r1, #1
  70ac88:	aa00007c 	bge	70ae80 <noMove_DA>
  70ac8c:	e59f01f4 	ldr	r0, [pc, #500]	; 70ae88 <noMove_DA+0x8>
  70ac90:	e59f21fc 	ldr	r2, [pc, #508]	; 70ae94 <noMove_DA+0x14>
  70ac94:	e5d22000 	ldrb	r2, [r2]
  70ac98:	e1a01002 	mov	r1, r2
  70ac9c:	e242200a 	sub	r2, r2, #10
  70aca0:	e2822001 	add	r2, r2, #1
  70aca4:	eb0000b0 	bl	70af6c <checkIfDifferentLine>
  70aca8:	e3530000 	cmp	r3, #0
  70acac:	0afffe97 	beq	70a710 <finishTester>
  70acb0:	e35200c7 	cmp	r2, #199	; 0xc7
  70acb4:	ca000071 	bgt	70ae80 <noMove_DA>
  70acb8:	e3520000 	cmp	r2, #0
  70acbc:	ba00006f 	blt	70ae80 <noMove_DA>
  70acc0:	e7d01002 	ldrb	r1, [r0, r2]
  70acc4:	e3510001 	cmp	r1, #1
  70acc8:	aa00006c 	bge	70ae80 <noMove_DA>
  70accc:	e59f01b4 	ldr	r0, [pc, #436]	; 70ae88 <noMove_DA+0x8>
  70acd0:	e59f21b4 	ldr	r2, [pc, #436]	; 70ae8c <noMove_DA+0xc>
  70acd4:	e5d22000 	ldrb	r2, [r2]
  70acd8:	e3a01000 	mov	r1, #0
  70acdc:	e7c01002 	strb	r1, [r0, r2]
  70ace0:	e59f01a0 	ldr	r0, [pc, #416]	; 70ae88 <noMove_DA+0x8>
  70ace4:	e59f21a4 	ldr	r2, [pc, #420]	; 70ae90 <noMove_DA+0x10>
  70ace8:	e5d22000 	ldrb	r2, [r2]
  70acec:	e3a01000 	mov	r1, #0
  70acf0:	e7c01002 	strb	r1, [r0, r2]
  70acf4:	e59f018c 	ldr	r0, [pc, #396]	; 70ae88 <noMove_DA+0x8>
  70acf8:	e59f2198 	ldr	r2, [pc, #408]	; 70ae98 <noMove_DA+0x18>
  70acfc:	e5d22000 	ldrb	r2, [r2]
  70ad00:	e3a01000 	mov	r1, #0
  70ad04:	e7c01002 	strb	r1, [r0, r2]
  70ad08:	e59f0178 	ldr	r0, [pc, #376]	; 70ae88 <noMove_DA+0x8>
  70ad0c:	e59f2180 	ldr	r2, [pc, #384]	; 70ae94 <noMove_DA+0x14>
  70ad10:	e5d22000 	ldrb	r2, [r2]
  70ad14:	e3a01000 	mov	r1, #0
  70ad18:	e7c01002 	strb	r1, [r0, r2]
  70ad1c:	eb0013bd 	bl	70fc18 <drawSquareBlock>
  70ad20:	e59f0164 	ldr	r0, [pc, #356]	; 70ae8c <noMove_DA+0xc>
  70ad24:	e5d02000 	ldrb	r2, [r0]
  70ad28:	e2422001 	sub	r2, r2, #1
  70ad2c:	e5c02000 	strb	r2, [r0]
  70ad30:	e59f0158 	ldr	r0, [pc, #344]	; 70ae90 <noMove_DA+0x10>
  70ad34:	e5d02000 	ldrb	r2, [r0]
  70ad38:	e2422001 	sub	r2, r2, #1
  70ad3c:	e5c02000 	strb	r2, [r0]
  70ad40:	e59f0150 	ldr	r0, [pc, #336]	; 70ae98 <noMove_DA+0x18>
  70ad44:	e5d02000 	ldrb	r2, [r0]
  70ad48:	e242200a 	sub	r2, r2, #10
  70ad4c:	e2822001 	add	r2, r2, #1
  70ad50:	e5c02000 	strb	r2, [r0]
  70ad54:	e59f0138 	ldr	r0, [pc, #312]	; 70ae94 <noMove_DA+0x14>
  70ad58:	e5d02000 	ldrb	r2, [r0]
  70ad5c:	e242200a 	sub	r2, r2, #10
  70ad60:	e2822001 	add	r2, r2, #1
  70ad64:	e5c02000 	strb	r2, [r0]
  70ad68:	e59f312c 	ldr	r3, [pc, #300]	; 70ae9c <noMove_DA+0x1c>
  70ad6c:	e5d33000 	ldrb	r3, [r3]
  70ad70:	e59f2110 	ldr	r2, [pc, #272]	; 70ae88 <noMove_DA+0x8>
  70ad74:	e59f0110 	ldr	r0, [pc, #272]	; 70ae8c <noMove_DA+0xc>
  70ad78:	e5d01000 	ldrb	r1, [r0]
  70ad7c:	e7c23001 	strb	r3, [r2, r1]
  70ad80:	e59f0108 	ldr	r0, [pc, #264]	; 70ae90 <noMove_DA+0x10>
  70ad84:	e5d01000 	ldrb	r1, [r0]
  70ad88:	e7c23001 	strb	r3, [r2, r1]
  70ad8c:	e59f0104 	ldr	r0, [pc, #260]	; 70ae98 <noMove_DA+0x18>
  70ad90:	e5d01000 	ldrb	r1, [r0]
  70ad94:	e7c23001 	strb	r3, [r2, r1]
  70ad98:	e59f00f4 	ldr	r0, [pc, #244]	; 70ae94 <noMove_DA+0x14>
  70ad9c:	e5d01000 	ldrb	r1, [r0]
  70ada0:	e7c23001 	strb	r3, [r2, r1]
  70ada4:	e59f00f4 	ldr	r0, [pc, #244]	; 70aea0 <noMove_DA+0x20>
  70ada8:	e3a010ff 	mov	r1, #255	; 0xff
  70adac:	e5c01000 	strb	r1, [r0]
  70adb0:	e59f30d8 	ldr	r3, [pc, #216]	; 70ae90 <noMove_DA+0x10>
  70adb4:	e5d31000 	ldrb	r1, [r3]
  70adb8:	e5c01001 	strb	r1, [r0, #1]
  70adbc:	e59f30d4 	ldr	r3, [pc, #212]	; 70ae98 <noMove_DA+0x18>
  70adc0:	e5d31000 	ldrb	r1, [r3]
  70adc4:	e5c01002 	strb	r1, [r0, #2]
  70adc8:	e59f30c4 	ldr	r3, [pc, #196]	; 70ae94 <noMove_DA+0x14>
  70adcc:	e5d31000 	ldrb	r1, [r3]
  70add0:	e5c01003 	strb	r1, [r0, #3]
  70add4:	e59f00c8 	ldr	r0, [pc, #200]	; 70aea4 <noMove_DA+0x24>
  70add8:	e59f30ac 	ldr	r3, [pc, #172]	; 70ae8c <noMove_DA+0xc>
  70addc:	e5d31000 	ldrb	r1, [r3]
  70ade0:	e5c01000 	strb	r1, [r0]
  70ade4:	e59f30a4 	ldr	r3, [pc, #164]	; 70ae90 <noMove_DA+0x10>
  70ade8:	e5d31000 	ldrb	r1, [r3]
  70adec:	e5c01001 	strb	r1, [r0, #1]
  70adf0:	e3a010ff 	mov	r1, #255	; 0xff
  70adf4:	e5c01002 	strb	r1, [r0, #2]
  70adf8:	e3a010ff 	mov	r1, #255	; 0xff
  70adfc:	e5c01003 	strb	r1, [r0, #3]
  70ae00:	e59f00a0 	ldr	r0, [pc, #160]	; 70aea8 <noMove_DA+0x28>
  70ae04:	e59f3080 	ldr	r3, [pc, #128]	; 70ae8c <noMove_DA+0xc>
  70ae08:	e5d31000 	ldrb	r1, [r3]
  70ae0c:	e5c01000 	strb	r1, [r0]
  70ae10:	e59f307c 	ldr	r3, [pc, #124]	; 70ae94 <noMove_DA+0x14>
  70ae14:	e5d31000 	ldrb	r1, [r3]
  70ae18:	e5c01001 	strb	r1, [r0, #1]
  70ae1c:	e3a010ff 	mov	r1, #255	; 0xff
  70ae20:	e5c01002 	strb	r1, [r0, #2]
  70ae24:	e3a010ff 	mov	r1, #255	; 0xff
  70ae28:	e5c01003 	strb	r1, [r0, #3]
  70ae2c:	e59f30ac 	ldr	r3, [pc, #172]	; 70aee0 <noMove_DA+0x60>
  70ae30:	e59f2078 	ldr	r2, [pc, #120]	; 70aeb0 <noMove_DA+0x30>
  70ae34:	e5823000 	str	r3, [r2]
  70ae38:	e59f30a4 	ldr	r3, [pc, #164]	; 70aee4 <noMove_DA+0x64>
  70ae3c:	e59f2074 	ldr	r2, [pc, #116]	; 70aeb8 <noMove_DA+0x38>
  70ae40:	e5823000 	str	r3, [r2]
  70ae44:	e3a03060 	mov	r3, #96	; 0x60
  70ae48:	e59f206c 	ldr	r2, [pc, #108]	; 70aebc <noMove_DA+0x3c>
  70ae4c:	e5c23000 	strb	r3, [r2]
  70ae50:	e3a03040 	mov	r3, #64	; 0x40
  70ae54:	e59f5064 	ldr	r5, [pc, #100]	; 70aec0 <noMove_DA+0x40>
  70ae58:	e5c53000 	strb	r3, [r5]
  70ae5c:	e59f0060 	ldr	r0, [pc, #96]	; 70aec4 <noMove_DA+0x44>
  70ae60:	e5d01000 	ldrb	r1, [r0]
  70ae64:	e59f005c 	ldr	r0, [pc, #92]	; 70aec8 <noMove_DA+0x48>
  70ae68:	e3a01003 	mov	r1, #3
  70ae6c:	e5c01000 	strb	r1, [r0]
  70ae70:	e59f0054 	ldr	r0, [pc, #84]	; 70aecc <noMove_DA+0x4c>
  70ae74:	e3a01000 	mov	r1, #0
  70ae78:	e5c01000 	strb	r1, [r0]
  70ae7c:	eb001365 	bl	70fc18 <drawSquareBlock>

0070ae80 <noMove_DA>:
  70ae80:	e49de004 	pop	{lr}		; (ldr lr, [sp], #4)
  70ae84:	e1a0f00e 	mov	pc, lr
  70ae88:	006c4e98 	.word	0x006c4e98
  70ae8c:	006c4f60 	.word	0x006c4f60
  70ae90:	006c4f61 	.word	0x006c4f61
  70ae94:	006c4f63 	.word	0x006c4f63
  70ae98:	006c4f62 	.word	0x006c4f62
  70ae9c:	006c4f7c 	.word	0x006c4f7c
  70aea0:	006c4f64 	.word	0x006c4f64
  70aea4:	006c4f68 	.word	0x006c4f68
  70aea8:	006c4f6c 	.word	0x006c4f6c
  70aeac:	0069ae98 	.word	0x0069ae98
  70aeb0:	006c4f70 	.word	0x006c4f70
  70aeb4:	0069de98 	.word	0x0069de98
  70aeb8:	006c4f74 	.word	0x006c4f74
  70aebc:	006c4f78 	.word	0x006c4f78
  70aec0:	006c4f79 	.word	0x006c4f79
  70aec4:	006c4f7a 	.word	0x006c4f7a
  70aec8:	006c4f7b 	.word	0x006c4f7b
  70aecc:	006c4f7d 	.word	0x006c4f7d
  70aed0:	006a0e98 	.word	0x006a0e98
  70aed4:	006a3e98 	.word	0x006a3e98
  70aed8:	006a6e98 	.word	0x006a6e98
  70aedc:	006a9e98 	.word	0x006a9e98
  70aee0:	00694e98 	.word	0x00694e98
  70aee4:	00697e98 	.word	0x00697e98

0070aee8 <rotateBlock>:
  70aee8:	e52de004 	push	{lr}		; (str lr, [sp, #-4]!)
  70aeec:	e59f0374 	ldr	r0, [pc, #884]	; 70b268 <ob_finishIRotation+0x8>
  70aef0:	e5d01000 	ldrb	r1, [r0]
  70aef4:	e3510001 	cmp	r1, #1
  70aef8:	0a00000c 	beq	70af30 <block1>
  70aefc:	e3510002 	cmp	r1, #2
  70af00:	0a00000c 	beq	70af38 <block2>
  70af04:	e3510003 	cmp	r1, #3
  70af08:	0a00000c 	beq	70af40 <block3>
  70af0c:	e3510004 	cmp	r1, #4
  70af10:	0a00000c 	beq	70af48 <block4>
  70af14:	e3510005 	cmp	r1, #5
  70af18:	0a00000b 	beq	70af4c <block5>
  70af1c:	e3510006 	cmp	r1, #6
  70af20:	0a00000b 	beq	70af54 <block6>
  70af24:	e3510007 	cmp	r1, #7
  70af28:	0a00000b 	beq	70af5c <block7>
  70af2c:	ea00000c 	b	70af64 <noRotate>

0070af30 <block1>:
  70af30:	eb000048 	bl	70b058 <rotateIBlock>
  70af34:	ea00000a 	b	70af64 <noRotate>

0070af38 <block2>:
  70af38:	eb00005c 	bl	70b0b0 <rotateSGreenBlock>
  70af3c:	ea000008 	b	70af64 <noRotate>

0070af40 <block3>:
  70af40:	eb000070 	bl	70b108 <rotateSRedBlock>
  70af44:	ea000006 	b	70af64 <noRotate>

0070af48 <block4>:
  70af48:	ea000005 	b	70af64 <noRotate>

0070af4c <block5>:
  70af4c:	eb000083 	bl	70b160 <rotateWBlock>
  70af50:	ea000003 	b	70af64 <noRotate>

0070af54 <block6>:
  70af54:	eb000097 	bl	70b1b8 <rotateLBBlock>
  70af58:	ea000001 	b	70af64 <noRotate>

0070af5c <block7>:
  70af5c:	eb0000ab 	bl	70b210 <rotateOBlock>
  70af60:	eaffffff 	b	70af64 <noRotate>

0070af64 <noRotate>:
  70af64:	e49de004 	pop	{lr}		; (ldr lr, [sp], #4)
  70af68:	e1a0f00e 	mov	pc, lr

0070af6c <checkIfDifferentLine>:
  70af6c:	e52de004 	push	{lr}		; (str lr, [sp, #-4]!)
  70af70:	e92d03e0 	push	{r5, r6, r7, r8, r9}
  70af74:	e1a08001 	mov	r8, r1
  70af78:	e1a09002 	mov	r9, r2
  70af7c:	e3a06000 	mov	r6, #0

0070af80 <subLoop>:
  70af80:	e251100a 	subs	r1, r1, #10
  70af84:	ba000001 	blt	70af90 <finish1>
  70af88:	e2866001 	add	r6, r6, #1
  70af8c:	eafffffb 	b	70af80 <subLoop>

0070af90 <finish1>:
  70af90:	e1a07006 	mov	r7, r6
  70af94:	e3a06000 	mov	r6, #0

0070af98 <subLoop2>:
  70af98:	e252200a 	subs	r2, r2, #10
  70af9c:	ba000001 	blt	70afa8 <finish2>
  70afa0:	e2866001 	add	r6, r6, #1
  70afa4:	eafffffb 	b	70af98 <subLoop2>

0070afa8 <finish2>:
  70afa8:	e1560007 	cmp	r6, r7
  70afac:	0a000001 	beq	70afb8 <sameLine>
  70afb0:	e3a03001 	mov	r3, #1
  70afb4:	ea000000 	b	70afbc <finishLineCheck>

0070afb8 <sameLine>:
  70afb8:	e3a03000 	mov	r3, #0

0070afbc <finishLineCheck>:
  70afbc:	e1a01008 	mov	r1, r8
  70afc0:	e1a02009 	mov	r2, r9
  70afc4:	e8bd03e0 	pop	{r5, r6, r7, r8, r9}
  70afc8:	e49de004 	pop	{lr}		; (ldr lr, [sp], #4)
  70afcc:	e1a0f00e 	mov	pc, lr

0070afd0 <checkIfTwentyDiff>:
  70afd0:	e52de004 	push	{lr}		; (str lr, [sp, #-4]!)
  70afd4:	e92d03e0 	push	{r5, r6, r7, r8, r9}
  70afd8:	e1a08001 	mov	r8, r1
  70afdc:	e1a09002 	mov	r9, r2
  70afe0:	e3a06000 	mov	r6, #0

0070afe4 <subLoopT>:
  70afe4:	e251100a 	subs	r1, r1, #10
  70afe8:	ba000001 	blt	70aff4 <finish1T>
  70afec:	e2866001 	add	r6, r6, #1
  70aff0:	eafffffb 	b	70afe4 <subLoopT>

0070aff4 <finish1T>:
  70aff4:	e1a07006 	mov	r7, r6
  70aff8:	e3a06000 	mov	r6, #0

0070affc <subLoop2T>:
  70affc:	e252200a 	subs	r2, r2, #10
  70b000:	ba000001 	blt	70b00c <finish2T>
  70b004:	e2866001 	add	r6, r6, #1
  70b008:	eafffffb 	b	70affc <subLoop2T>

0070b00c <finish2T>:
  70b00c:	e92d00c0 	push	{r6, r7}
  70b010:	e0466007 	sub	r6, r6, r7
  70b014:	e3560002 	cmp	r6, #2
  70b018:	0a000005 	beq	70b034 <twentyDiff1>
  70b01c:	e8bd00c0 	pop	{r6, r7}
  70b020:	e0477006 	sub	r7, r7, r6
  70b024:	e3570002 	cmp	r7, #2
  70b028:	0a000004 	beq	70b040 <twentyDiff2>
  70b02c:	e3a03000 	mov	r3, #0
  70b030:	ea000003 	b	70b044 <finishLineCheckT>

0070b034 <twentyDiff1>:
  70b034:	e8bd00c0 	pop	{r6, r7}
  70b038:	e3a03001 	mov	r3, #1
  70b03c:	ea000000 	b	70b044 <finishLineCheckT>

0070b040 <twentyDiff2>:
  70b040:	e3a03001 	mov	r3, #1

0070b044 <finishLineCheckT>:
  70b044:	e1a01008 	mov	r1, r8
  70b048:	e1a02009 	mov	r2, r9
  70b04c:	e8bd03e0 	pop	{r5, r6, r7, r8, r9}
  70b050:	e49de004 	pop	{lr}		; (ldr lr, [sp], #4)
  70b054:	e1a0f00e 	mov	pc, lr

0070b058 <rotateIBlock>:
  70b058:	e52de004 	push	{lr}		; (str lr, [sp, #-4]!)
  70b05c:	e59f0208 	ldr	r0, [pc, #520]	; 70b26c <ob_finishIRotation+0xc>
  70b060:	e5d01000 	ldrb	r1, [r0]
  70b064:	e3510000 	cmp	r1, #0
  70b068:	0a000006 	beq	70b088 <state0>
  70b06c:	e3510001 	cmp	r1, #1
  70b070:	0a000006 	beq	70b090 <state1>
  70b074:	e3510002 	cmp	r1, #2
  70b078:	0a000006 	beq	70b098 <state2>
  70b07c:	e3510003 	cmp	r1, #3
  70b080:	0a000006 	beq	70b0a0 <state3>
  70b084:	ea000007 	b	70b0a8 <finishIRotation>

0070b088 <state0>:
  70b088:	eb000078 	bl	70b270 <rotate0_AB>
  70b08c:	ea000005 	b	70b0a8 <finishIRotation>

0070b090 <state1>:
  70b090:	eb000119 	bl	70b4fc <rotate0_BC>
  70b094:	ea000003 	b	70b0a8 <finishIRotation>

0070b098 <state2>:
  70b098:	eb0001b3 	bl	70b76c <rotate0_CD>
  70b09c:	ea000001 	b	70b0a8 <finishIRotation>

0070b0a0 <state3>:
  70b0a0:	eb000252 	bl	70b9f0 <rotate0_DA>
  70b0a4:	eaffffff 	b	70b0a8 <finishIRotation>

0070b0a8 <finishIRotation>:
  70b0a8:	e49de004 	pop	{lr}		; (ldr lr, [sp], #4)
  70b0ac:	e1a0f00e 	mov	pc, lr

0070b0b0 <rotateSGreenBlock>:
  70b0b0:	e52de004 	push	{lr}		; (str lr, [sp, #-4]!)
  70b0b4:	e59f01b0 	ldr	r0, [pc, #432]	; 70b26c <ob_finishIRotation+0xc>
  70b0b8:	e5d01000 	ldrb	r1, [r0]
  70b0bc:	e3510000 	cmp	r1, #0
  70b0c0:	0a000006 	beq	70b0e0 <sg_state0>
  70b0c4:	e3510001 	cmp	r1, #1
  70b0c8:	0a000006 	beq	70b0e8 <sg_state1>
  70b0cc:	e3510002 	cmp	r1, #2
  70b0d0:	0a000006 	beq	70b0f0 <sg_state2>
  70b0d4:	e3510003 	cmp	r1, #3
  70b0d8:	0a000006 	beq	70b0f8 <sg_state3>
  70b0dc:	ea000007 	b	70b100 <sg_finishIRotation>

0070b0e0 <sg_state0>:
  70b0e0:	eb00107d 	bl	70f2dc <rotate1_AB>
  70b0e4:	ea000005 	b	70b100 <sg_finishIRotation>

0070b0e8 <sg_state1>:
  70b0e8:	eb00110a 	bl	70f518 <rotate1_BC>
  70b0ec:	ea000003 	b	70b100 <sg_finishIRotation>

0070b0f0 <sg_state2>:
  70b0f0:	eb001198 	bl	70f758 <rotate1_CD>
  70b0f4:	ea000001 	b	70b100 <sg_finishIRotation>

0070b0f8 <sg_state3>:
  70b0f8:	eb001224 	bl	70f990 <rotate1_DA>
  70b0fc:	eaffffff 	b	70b100 <sg_finishIRotation>

0070b100 <sg_finishIRotation>:
  70b100:	e49de004 	pop	{lr}		; (ldr lr, [sp], #4)
  70b104:	e1a0f00e 	mov	pc, lr

0070b108 <rotateSRedBlock>:
  70b108:	e52de004 	push	{lr}		; (str lr, [sp, #-4]!)
  70b10c:	e59f0158 	ldr	r0, [pc, #344]	; 70b26c <ob_finishIRotation+0xc>
  70b110:	e5d01000 	ldrb	r1, [r0]
  70b114:	e3510000 	cmp	r1, #0
  70b118:	0a000006 	beq	70b138 <sr_state0>
  70b11c:	e3510001 	cmp	r1, #1
  70b120:	0a000006 	beq	70b140 <sr_state1>
  70b124:	e3510002 	cmp	r1, #2
  70b128:	0a000006 	beq	70b148 <sr_state2>
  70b12c:	e3510003 	cmp	r1, #3
  70b130:	0a000006 	beq	70b150 <sr_state3>
  70b134:	ea000007 	b	70b158 <sr_finishIRotation>

0070b138 <sr_state0>:
  70b138:	eb000e17 	bl	70e99c <rotate2_AB>
  70b13c:	ea000005 	b	70b158 <sr_finishIRotation>

0070b140 <sr_state1>:
  70b140:	eb000ea6 	bl	70ebe0 <rotate2_BC>
  70b144:	ea000003 	b	70b158 <sr_finishIRotation>

0070b148 <sr_state2>:
  70b148:	eb000f33 	bl	70ee1c <rotate2_CD>
  70b14c:	ea000001 	b	70b158 <sr_finishIRotation>

0070b150 <sr_state3>:
  70b150:	eb000fc0 	bl	70f058 <rotate2_DA>
  70b154:	eaffffff 	b	70b158 <sr_finishIRotation>

0070b158 <sr_finishIRotation>:
  70b158:	e49de004 	pop	{lr}		; (ldr lr, [sp], #4)
  70b15c:	e1a0f00e 	mov	pc, lr

0070b160 <rotateWBlock>:
  70b160:	e52de004 	push	{lr}		; (str lr, [sp, #-4]!)
  70b164:	e59f0100 	ldr	r0, [pc, #256]	; 70b26c <ob_finishIRotation+0xc>
  70b168:	e5d01000 	ldrb	r1, [r0]
  70b16c:	e3510000 	cmp	r1, #0
  70b170:	0a000006 	beq	70b190 <w_state0>
  70b174:	e3510001 	cmp	r1, #1
  70b178:	0a000006 	beq	70b198 <w_state1>
  70b17c:	e3510002 	cmp	r1, #2
  70b180:	0a000006 	beq	70b1a0 <w_state2>
  70b184:	e3510003 	cmp	r1, #3
  70b188:	0a000006 	beq	70b1a8 <w_state3>
  70b18c:	ea000007 	b	70b1b0 <w_finishIRotation>

0070b190 <w_state0>:
  70b190:	eb000a35 	bl	70da6c <rotate4_AB>
  70b194:	ea000005 	b	70b1b0 <w_finishIRotation>

0070b198 <w_state1>:
  70b198:	eb000ab2 	bl	70dc68 <rotate4_BC>
  70b19c:	ea000003 	b	70b1b0 <w_finishIRotation>

0070b1a0 <w_state2>:
  70b1a0:	eb000b25 	bl	70de3c <rotate4_CD>
  70b1a4:	ea000001 	b	70b1b0 <w_finishIRotation>

0070b1a8 <w_state3>:
  70b1a8:	eb000ba1 	bl	70e034 <rotate4_DA>
  70b1ac:	eaffffff 	b	70b1b0 <w_finishIRotation>

0070b1b0 <w_finishIRotation>:
  70b1b0:	e49de004 	pop	{lr}		; (ldr lr, [sp], #4)
  70b1b4:	e1a0f00e 	mov	pc, lr

0070b1b8 <rotateLBBlock>:
  70b1b8:	e52de004 	push	{lr}		; (str lr, [sp, #-4]!)
  70b1bc:	e59f00a8 	ldr	r0, [pc, #168]	; 70b26c <ob_finishIRotation+0xc>
  70b1c0:	e5d01000 	ldrb	r1, [r0]
  70b1c4:	e3510000 	cmp	r1, #0
  70b1c8:	0a000006 	beq	70b1e8 <lb_state0>
  70b1cc:	e3510001 	cmp	r1, #1
  70b1d0:	0a000006 	beq	70b1f0 <lb_state1>
  70b1d4:	e3510002 	cmp	r1, #2
  70b1d8:	0a000006 	beq	70b1f8 <lb_state2>
  70b1dc:	e3510003 	cmp	r1, #3
  70b1e0:	0a000006 	beq	70b200 <lb_state3>
  70b1e4:	ea000007 	b	70b208 <lb_finishIRotation>

0070b1e8 <lb_state0>:
  70b1e8:	ebfffcac 	bl	70a4a0 <rotate5_AB>
  70b1ec:	ea000005 	b	70b208 <lb_finishIRotation>

0070b1f0 <lb_state1>:
  70b1f0:	ebfffd48 	bl	70a718 <rotate5_BC>
  70b1f4:	ea000003 	b	70b208 <lb_finishIRotation>

0070b1f8 <lb_state2>:
  70b1f8:	ebfffde6 	bl	70a998 <rotate5_CD>
  70b1fc:	ea000001 	b	70b208 <lb_finishIRotation>

0070b200 <lb_state3>:
  70b200:	ebfffe82 	bl	70ac10 <rotate5_DA>
  70b204:	eaffffff 	b	70b208 <lb_finishIRotation>

0070b208 <lb_finishIRotation>:
  70b208:	e49de004 	pop	{lr}		; (ldr lr, [sp], #4)
  70b20c:	e1a0f00e 	mov	pc, lr

0070b210 <rotateOBlock>:
  70b210:	e52de004 	push	{lr}		; (str lr, [sp, #-4]!)
  70b214:	e59f0050 	ldr	r0, [pc, #80]	; 70b26c <ob_finishIRotation+0xc>
  70b218:	e5d01000 	ldrb	r1, [r0]
  70b21c:	e3510000 	cmp	r1, #0
  70b220:	0a000006 	beq	70b240 <ob_state0>
  70b224:	e3510001 	cmp	r1, #1
  70b228:	0a000006 	beq	70b248 <ob_state1>
  70b22c:	e3510002 	cmp	r1, #2
  70b230:	0a000006 	beq	70b250 <ob_state2>
  70b234:	e3510003 	cmp	r1, #3
  70b238:	0a000006 	beq	70b258 <ob_state3>
  70b23c:	ea000007 	b	70b260 <ob_finishIRotation>

0070b240 <ob_state0>:
  70b240:	eb000604 	bl	70ca58 <rotate6_AB>
  70b244:	ea000005 	b	70b260 <ob_finishIRotation>

0070b248 <ob_state1>:
  70b248:	eb0006a2 	bl	70ccd8 <rotate6_BC>
  70b24c:	ea000003 	b	70b260 <ob_finishIRotation>

0070b250 <ob_state2>:
  70b250:	eb00073f 	bl	70cf54 <rotate6_CD>
  70b254:	ea000001 	b	70b260 <ob_finishIRotation>

0070b258 <ob_state3>:
  70b258:	eb0007d9 	bl	70d1c4 <rotate6_DA>
  70b25c:	eaffffff 	b	70b260 <ob_finishIRotation>

0070b260 <ob_finishIRotation>:
  70b260:	e49de004 	pop	{lr}		; (ldr lr, [sp], #4)
  70b264:	e1a0f00e 	mov	pc, lr
  70b268:	006c4f7c 	.word	0x006c4f7c
  70b26c:	006c4f7d 	.word	0x006c4f7d

0070b270 <rotate0_AB>:
  70b270:	e52de004 	push	{lr}		; (str lr, [sp, #-4]!)
  70b274:	e59f09e4 	ldr	r0, [pc, #2532]	; 70bc60 <noMove_DA+0x8>
  70b278:	e59f29e4 	ldr	r2, [pc, #2532]	; 70bc64 <noMove_DA+0xc>
  70b27c:	e5d22000 	ldrb	r2, [r2]
  70b280:	e1a01002 	mov	r1, r2
  70b284:	e242200a 	sub	r2, r2, #10
  70b288:	e2822002 	add	r2, r2, #2
  70b28c:	ebffff36 	bl	70af6c <checkIfDifferentLine>
  70b290:	e3530000 	cmp	r3, #0
  70b294:	0a000096 	beq	70b4f4 <finishTester>
  70b298:	e35200c7 	cmp	r2, #199	; 0xc7
  70b29c:	ca000094 	bgt	70b4f4 <finishTester>
  70b2a0:	e3520000 	cmp	r2, #0
  70b2a4:	ba000092 	blt	70b4f4 <finishTester>
  70b2a8:	e7d01002 	ldrb	r1, [r0, r2]
  70b2ac:	e3510001 	cmp	r1, #1
  70b2b0:	aa00008f 	bge	70b4f4 <finishTester>
  70b2b4:	e59f09a4 	ldr	r0, [pc, #2468]	; 70bc60 <noMove_DA+0x8>
  70b2b8:	e59f29a8 	ldr	r2, [pc, #2472]	; 70bc68 <noMove_DA+0x10>
  70b2bc:	e5d22000 	ldrb	r2, [r2]
  70b2c0:	e1a01002 	mov	r1, r2
  70b2c4:	e282200a 	add	r2, r2, #10
  70b2c8:	ebffff27 	bl	70af6c <checkIfDifferentLine>
  70b2cc:	e3530000 	cmp	r3, #0
  70b2d0:	0a000087 	beq	70b4f4 <finishTester>
  70b2d4:	e35200c7 	cmp	r2, #199	; 0xc7
  70b2d8:	ca000085 	bgt	70b4f4 <finishTester>
  70b2dc:	e3520000 	cmp	r2, #0
  70b2e0:	ba000083 	blt	70b4f4 <finishTester>
  70b2e4:	e7d01002 	ldrb	r1, [r0, r2]
  70b2e8:	e3510001 	cmp	r1, #1
  70b2ec:	aa000080 	bge	70b4f4 <finishTester>
  70b2f0:	e59f0968 	ldr	r0, [pc, #2408]	; 70bc60 <noMove_DA+0x8>
  70b2f4:	e59f2970 	ldr	r2, [pc, #2416]	; 70bc6c <noMove_DA+0x14>
  70b2f8:	e5d22000 	ldrb	r2, [r2]
  70b2fc:	e1a01002 	mov	r1, r2
  70b300:	e2422001 	sub	r2, r2, #1
  70b304:	e2822014 	add	r2, r2, #20
  70b308:	ebffff30 	bl	70afd0 <checkIfTwentyDiff>
  70b30c:	e3530000 	cmp	r3, #0
  70b310:	0a000077 	beq	70b4f4 <finishTester>
  70b314:	e35200c7 	cmp	r2, #199	; 0xc7
  70b318:	ca000075 	bgt	70b4f4 <finishTester>
  70b31c:	e3520000 	cmp	r2, #0
  70b320:	ba000073 	blt	70b4f4 <finishTester>
  70b324:	e7d01002 	ldrb	r1, [r0, r2]
  70b328:	e3510001 	cmp	r1, #1
  70b32c:	aa000070 	bge	70b4f4 <finishTester>
  70b330:	e59f0928 	ldr	r0, [pc, #2344]	; 70bc60 <noMove_DA+0x8>
  70b334:	e59f2928 	ldr	r2, [pc, #2344]	; 70bc64 <noMove_DA+0xc>
  70b338:	e5d22000 	ldrb	r2, [r2]
  70b33c:	e3a01000 	mov	r1, #0
  70b340:	e7c01002 	strb	r1, [r0, r2]
  70b344:	e59f0914 	ldr	r0, [pc, #2324]	; 70bc60 <noMove_DA+0x8>
  70b348:	e59f2920 	ldr	r2, [pc, #2336]	; 70bc70 <noMove_DA+0x18>
  70b34c:	e5d22000 	ldrb	r2, [r2]
  70b350:	e3a01000 	mov	r1, #0
  70b354:	e7c01002 	strb	r1, [r0, r2]
  70b358:	e59f0900 	ldr	r0, [pc, #2304]	; 70bc60 <noMove_DA+0x8>
  70b35c:	e59f2904 	ldr	r2, [pc, #2308]	; 70bc68 <noMove_DA+0x10>
  70b360:	e5d22000 	ldrb	r2, [r2]
  70b364:	e3a01000 	mov	r1, #0
  70b368:	e7c01002 	strb	r1, [r0, r2]
  70b36c:	e59f08ec 	ldr	r0, [pc, #2284]	; 70bc60 <noMove_DA+0x8>
  70b370:	e59f28f4 	ldr	r2, [pc, #2292]	; 70bc6c <noMove_DA+0x14>
  70b374:	e5d22000 	ldrb	r2, [r2]
  70b378:	e3a01000 	mov	r1, #0
  70b37c:	e7c01002 	strb	r1, [r0, r2]
  70b380:	eb001224 	bl	70fc18 <drawSquareBlock>
  70b384:	e59f08d8 	ldr	r0, [pc, #2264]	; 70bc64 <noMove_DA+0xc>
  70b388:	e5d02000 	ldrb	r2, [r0]
  70b38c:	e242200a 	sub	r2, r2, #10
  70b390:	e2822002 	add	r2, r2, #2
  70b394:	e5c02000 	strb	r2, [r0]
  70b398:	e59f08d0 	ldr	r0, [pc, #2256]	; 70bc70 <noMove_DA+0x18>
  70b39c:	e5d02000 	ldrb	r2, [r0]
  70b3a0:	e2822001 	add	r2, r2, #1
  70b3a4:	e5c02000 	strb	r2, [r0]
  70b3a8:	e59f08b8 	ldr	r0, [pc, #2232]	; 70bc68 <noMove_DA+0x10>
  70b3ac:	e5d02000 	ldrb	r2, [r0]
  70b3b0:	e282200a 	add	r2, r2, #10
  70b3b4:	e5c02000 	strb	r2, [r0]
  70b3b8:	e59f08ac 	ldr	r0, [pc, #2220]	; 70bc6c <noMove_DA+0x14>
  70b3bc:	e5d02000 	ldrb	r2, [r0]
  70b3c0:	e2422001 	sub	r2, r2, #1
  70b3c4:	e2822014 	add	r2, r2, #20
  70b3c8:	e5c02000 	strb	r2, [r0]
  70b3cc:	e59f38a0 	ldr	r3, [pc, #2208]	; 70bc74 <noMove_DA+0x1c>
  70b3d0:	e5933000 	ldr	r3, [r3]
  70b3d4:	e59f2884 	ldr	r2, [pc, #2180]	; 70bc60 <noMove_DA+0x8>
  70b3d8:	e59f0884 	ldr	r0, [pc, #2180]	; 70bc64 <noMove_DA+0xc>
  70b3dc:	e5d01000 	ldrb	r1, [r0]
  70b3e0:	e7c23001 	strb	r3, [r2, r1]
  70b3e4:	e59f0884 	ldr	r0, [pc, #2180]	; 70bc70 <noMove_DA+0x18>
  70b3e8:	e5d01000 	ldrb	r1, [r0]
  70b3ec:	e7c23001 	strb	r3, [r2, r1]
  70b3f0:	e59f0870 	ldr	r0, [pc, #2160]	; 70bc68 <noMove_DA+0x10>
  70b3f4:	e5d01000 	ldrb	r1, [r0]
  70b3f8:	e7c23001 	strb	r3, [r2, r1]
  70b3fc:	e59f0868 	ldr	r0, [pc, #2152]	; 70bc6c <noMove_DA+0x14>
  70b400:	e5d01000 	ldrb	r1, [r0]
  70b404:	e7c23001 	strb	r3, [r2, r1]
  70b408:	e59f0868 	ldr	r0, [pc, #2152]	; 70bc78 <noMove_DA+0x20>
  70b40c:	e3a010ff 	mov	r1, #255	; 0xff
  70b410:	e5c01000 	strb	r1, [r0]
  70b414:	e3a010ff 	mov	r1, #255	; 0xff
  70b418:	e5c01001 	strb	r1, [r0, #1]
  70b41c:	e3a010ff 	mov	r1, #255	; 0xff
  70b420:	e5c01002 	strb	r1, [r0, #2]
  70b424:	e59f1840 	ldr	r1, [pc, #2112]	; 70bc6c <noMove_DA+0x14>
  70b428:	e5d11000 	ldrb	r1, [r1]
  70b42c:	e5c01003 	strb	r1, [r0, #3]
  70b430:	e59f0844 	ldr	r0, [pc, #2116]	; 70bc7c <noMove_DA+0x24>
  70b434:	e59f1828 	ldr	r1, [pc, #2088]	; 70bc64 <noMove_DA+0xc>
  70b438:	e5d11000 	ldrb	r1, [r1]
  70b43c:	e5c01000 	strb	r1, [r0]
  70b440:	e59f1828 	ldr	r1, [pc, #2088]	; 70bc70 <noMove_DA+0x18>
  70b444:	e5d11000 	ldrb	r1, [r1]
  70b448:	e5c01001 	strb	r1, [r0, #1]
  70b44c:	e59f1814 	ldr	r1, [pc, #2068]	; 70bc68 <noMove_DA+0x10>
  70b450:	e5d11000 	ldrb	r1, [r1]
  70b454:	e5c01002 	strb	r1, [r0, #2]
  70b458:	e59f180c 	ldr	r1, [pc, #2060]	; 70bc6c <noMove_DA+0x14>
  70b45c:	e5d11000 	ldrb	r1, [r1]
  70b460:	e5c01003 	strb	r1, [r0, #3]
  70b464:	e59f0814 	ldr	r0, [pc, #2068]	; 70bc80 <noMove_DA+0x28>
  70b468:	e59f17f4 	ldr	r1, [pc, #2036]	; 70bc64 <noMove_DA+0xc>
  70b46c:	e5d11000 	ldrb	r1, [r1]
  70b470:	e5c01000 	strb	r1, [r0]
  70b474:	e59f17f4 	ldr	r1, [pc, #2036]	; 70bc70 <noMove_DA+0x18>
  70b478:	e5d11000 	ldrb	r1, [r1]
  70b47c:	e5c01001 	strb	r1, [r0, #1]
  70b480:	e59f17e0 	ldr	r1, [pc, #2016]	; 70bc68 <noMove_DA+0x10>
  70b484:	e5d11000 	ldrb	r1, [r1]
  70b488:	e5c01002 	strb	r1, [r0, #2]
  70b48c:	e59f17d8 	ldr	r1, [pc, #2008]	; 70bc6c <noMove_DA+0x14>
  70b490:	e5d11000 	ldrb	r1, [r1]
  70b494:	e5c01003 	strb	r1, [r0, #3]
  70b498:	e59f37e4 	ldr	r3, [pc, #2020]	; 70bc84 <noMove_DA+0x2c>
  70b49c:	e59f27e4 	ldr	r2, [pc, #2020]	; 70bc88 <noMove_DA+0x30>
  70b4a0:	e5823000 	str	r3, [r2]
  70b4a4:	e59f37e0 	ldr	r3, [pc, #2016]	; 70bc8c <noMove_DA+0x34>
  70b4a8:	e59f27e0 	ldr	r2, [pc, #2016]	; 70bc90 <noMove_DA+0x38>
  70b4ac:	e5823000 	str	r3, [r2]
  70b4b0:	e3a03020 	mov	r3, #32
  70b4b4:	e59f27d8 	ldr	r2, [pc, #2008]	; 70bc94 <noMove_DA+0x3c>
  70b4b8:	e5c23000 	strb	r3, [r2]
  70b4bc:	e3a03080 	mov	r3, #128	; 0x80
  70b4c0:	e59f57d0 	ldr	r5, [pc, #2000]	; 70bc98 <noMove_DA+0x40>
  70b4c4:	e5c53000 	strb	r3, [r5]
  70b4c8:	e59f07cc 	ldr	r0, [pc, #1996]	; 70bc9c <noMove_DA+0x44>
  70b4cc:	e5d01000 	ldrb	r1, [r0]
  70b4d0:	e2811002 	add	r1, r1, #2
  70b4d4:	e5c01000 	strb	r1, [r0]
  70b4d8:	e59f07c0 	ldr	r0, [pc, #1984]	; 70bca0 <noMove_DA+0x48>
  70b4dc:	e3a01001 	mov	r1, #1
  70b4e0:	e5c01000 	strb	r1, [r0]
  70b4e4:	e59f07b8 	ldr	r0, [pc, #1976]	; 70bca4 <noMove_DA+0x4c>
  70b4e8:	e3a01001 	mov	r1, #1
  70b4ec:	e5c01000 	strb	r1, [r0]
  70b4f0:	eb0011c8 	bl	70fc18 <drawSquareBlock>

0070b4f4 <finishTester>:
  70b4f4:	e49de004 	pop	{lr}		; (ldr lr, [sp], #4)
  70b4f8:	e1a0f00e 	mov	pc, lr

0070b4fc <rotate0_BC>:
  70b4fc:	e52de004 	push	{lr}		; (str lr, [sp, #-4]!)
  70b500:	e59f0758 	ldr	r0, [pc, #1880]	; 70bc60 <noMove_DA+0x8>
  70b504:	e59f2758 	ldr	r2, [pc, #1880]	; 70bc64 <noMove_DA+0xc>
  70b508:	e5d22000 	ldrb	r2, [r2]
  70b50c:	e1a01002 	mov	r1, r2
  70b510:	e2822014 	add	r2, r2, #20
  70b514:	e2422002 	sub	r2, r2, #2
  70b518:	ebfffeac 	bl	70afd0 <checkIfTwentyDiff>
  70b51c:	e3530000 	cmp	r3, #0
  70b520:	0a00008f 	beq	70b764 <noMove_BC>
  70b524:	e35200c7 	cmp	r2, #199	; 0xc7
  70b528:	ca00008d 	bgt	70b764 <noMove_BC>
  70b52c:	e3520000 	cmp	r2, #0
  70b530:	ba00008b 	blt	70b764 <noMove_BC>
  70b534:	e7d01002 	ldrb	r1, [r0, r2]
  70b538:	e3510001 	cmp	r1, #1
  70b53c:	aa000088 	bge	70b764 <noMove_BC>
  70b540:	e59f0718 	ldr	r0, [pc, #1816]	; 70bc60 <noMove_DA+0x8>
  70b544:	e59f2724 	ldr	r2, [pc, #1828]	; 70bc70 <noMove_DA+0x18>
  70b548:	e5d22000 	ldrb	r2, [r2]
  70b54c:	e1a01002 	mov	r1, r2
  70b550:	e282200a 	add	r2, r2, #10
  70b554:	e2422001 	sub	r2, r2, #1
  70b558:	ebfffe83 	bl	70af6c <checkIfDifferentLine>
  70b55c:	e3530000 	cmp	r3, #0
  70b560:	0a00007f 	beq	70b764 <noMove_BC>
  70b564:	e35200c7 	cmp	r2, #199	; 0xc7
  70b568:	ca00007d 	bgt	70b764 <noMove_BC>
  70b56c:	e3520000 	cmp	r2, #0
  70b570:	ba00007b 	blt	70b764 <noMove_BC>
  70b574:	e7d01002 	ldrb	r1, [r0, r2]
  70b578:	e3510001 	cmp	r1, #1
  70b57c:	aa000078 	bge	70b764 <noMove_BC>
  70b580:	e59f06d8 	ldr	r0, [pc, #1752]	; 70bc60 <noMove_DA+0x8>
  70b584:	e59f26e0 	ldr	r2, [pc, #1760]	; 70bc6c <noMove_DA+0x14>
  70b588:	e5d22000 	ldrb	r2, [r2]
  70b58c:	e1a01002 	mov	r1, r2
  70b590:	e242200a 	sub	r2, r2, #10
  70b594:	e2822001 	add	r2, r2, #1
  70b598:	ebfffe73 	bl	70af6c <checkIfDifferentLine>
  70b59c:	e3530000 	cmp	r3, #0
  70b5a0:	0a00006f 	beq	70b764 <noMove_BC>
  70b5a4:	e35200c7 	cmp	r2, #199	; 0xc7
  70b5a8:	ca00006d 	bgt	70b764 <noMove_BC>
  70b5ac:	e3520000 	cmp	r2, #0
  70b5b0:	ba00006b 	blt	70b764 <noMove_BC>
  70b5b4:	e7d01002 	ldrb	r1, [r0, r2]
  70b5b8:	e3510001 	cmp	r1, #1
  70b5bc:	aa000068 	bge	70b764 <noMove_BC>
  70b5c0:	e59f0698 	ldr	r0, [pc, #1688]	; 70bc60 <noMove_DA+0x8>
  70b5c4:	e59f2698 	ldr	r2, [pc, #1688]	; 70bc64 <noMove_DA+0xc>
  70b5c8:	e5d22000 	ldrb	r2, [r2]
  70b5cc:	e3a01000 	mov	r1, #0
  70b5d0:	e7c01002 	strb	r1, [r0, r2]
  70b5d4:	e59f0684 	ldr	r0, [pc, #1668]	; 70bc60 <noMove_DA+0x8>
  70b5d8:	e59f2690 	ldr	r2, [pc, #1680]	; 70bc70 <noMove_DA+0x18>
  70b5dc:	e5d22000 	ldrb	r2, [r2]
  70b5e0:	e3a01000 	mov	r1, #0
  70b5e4:	e7c01002 	strb	r1, [r0, r2]
  70b5e8:	e59f0670 	ldr	r0, [pc, #1648]	; 70bc60 <noMove_DA+0x8>
  70b5ec:	e59f2674 	ldr	r2, [pc, #1652]	; 70bc68 <noMove_DA+0x10>
  70b5f0:	e5d22000 	ldrb	r2, [r2]
  70b5f4:	e3a01000 	mov	r1, #0
  70b5f8:	e7c01002 	strb	r1, [r0, r2]
  70b5fc:	e59f065c 	ldr	r0, [pc, #1628]	; 70bc60 <noMove_DA+0x8>
  70b600:	e59f2664 	ldr	r2, [pc, #1636]	; 70bc6c <noMove_DA+0x14>
  70b604:	e5d22000 	ldrb	r2, [r2]
  70b608:	e3a01000 	mov	r1, #0
  70b60c:	e7c01002 	strb	r1, [r0, r2]
  70b610:	eb001180 	bl	70fc18 <drawSquareBlock>
  70b614:	e59f0648 	ldr	r0, [pc, #1608]	; 70bc64 <noMove_DA+0xc>
  70b618:	e5d02000 	ldrb	r2, [r0]
  70b61c:	e2822014 	add	r2, r2, #20
  70b620:	e2422002 	sub	r2, r2, #2
  70b624:	e5c02000 	strb	r2, [r0]
  70b628:	e59f0640 	ldr	r0, [pc, #1600]	; 70bc70 <noMove_DA+0x18>
  70b62c:	e5d02000 	ldrb	r2, [r0]
  70b630:	e282200a 	add	r2, r2, #10
  70b634:	e2422001 	sub	r2, r2, #1
  70b638:	e5c02000 	strb	r2, [r0]
  70b63c:	e59f0624 	ldr	r0, [pc, #1572]	; 70bc68 <noMove_DA+0x10>
  70b640:	e5d02000 	ldrb	r2, [r0]
  70b644:	e59f0620 	ldr	r0, [pc, #1568]	; 70bc6c <noMove_DA+0x14>
  70b648:	e5d02000 	ldrb	r2, [r0]
  70b64c:	e242200a 	sub	r2, r2, #10
  70b650:	e2822001 	add	r2, r2, #1
  70b654:	e5c02000 	strb	r2, [r0]
  70b658:	e59f3614 	ldr	r3, [pc, #1556]	; 70bc74 <noMove_DA+0x1c>
  70b65c:	e5d33000 	ldrb	r3, [r3]
  70b660:	e59f25f8 	ldr	r2, [pc, #1528]	; 70bc60 <noMove_DA+0x8>
  70b664:	e59f05f8 	ldr	r0, [pc, #1528]	; 70bc64 <noMove_DA+0xc>
  70b668:	e5d01000 	ldrb	r1, [r0]
  70b66c:	e7c23001 	strb	r3, [r2, r1]
  70b670:	e59f05f8 	ldr	r0, [pc, #1528]	; 70bc70 <noMove_DA+0x18>
  70b674:	e5d01000 	ldrb	r1, [r0]
  70b678:	e7c23001 	strb	r3, [r2, r1]
  70b67c:	e59f05e4 	ldr	r0, [pc, #1508]	; 70bc68 <noMove_DA+0x10>
  70b680:	e5d01000 	ldrb	r1, [r0]
  70b684:	e7c23001 	strb	r3, [r2, r1]
  70b688:	e59f05dc 	ldr	r0, [pc, #1500]	; 70bc6c <noMove_DA+0x14>
  70b68c:	e5d01000 	ldrb	r1, [r0]
  70b690:	e7c23001 	strb	r3, [r2, r1]
  70b694:	e59f05dc 	ldr	r0, [pc, #1500]	; 70bc78 <noMove_DA+0x20>
  70b698:	e59f35c4 	ldr	r3, [pc, #1476]	; 70bc64 <noMove_DA+0xc>
  70b69c:	e5d31000 	ldrb	r1, [r3]
  70b6a0:	e5c01000 	strb	r1, [r0]
  70b6a4:	e59f35c4 	ldr	r3, [pc, #1476]	; 70bc70 <noMove_DA+0x18>
  70b6a8:	e5d31000 	ldrb	r1, [r3]
  70b6ac:	e5c01001 	strb	r1, [r0, #1]
  70b6b0:	e59f35b0 	ldr	r3, [pc, #1456]	; 70bc68 <noMove_DA+0x10>
  70b6b4:	e5d31000 	ldrb	r1, [r3]
  70b6b8:	e5c01002 	strb	r1, [r0, #2]
  70b6bc:	e59f35a8 	ldr	r3, [pc, #1448]	; 70bc6c <noMove_DA+0x14>
  70b6c0:	e5d31000 	ldrb	r1, [r3]
  70b6c4:	e5c01003 	strb	r1, [r0, #3]
  70b6c8:	e59f05ac 	ldr	r0, [pc, #1452]	; 70bc7c <noMove_DA+0x24>
  70b6cc:	e59f1590 	ldr	r1, [pc, #1424]	; 70bc64 <noMove_DA+0xc>
  70b6d0:	e5d11000 	ldrb	r1, [r1]
  70b6d4:	e5c01000 	strb	r1, [r0]
  70b6d8:	e3a010ff 	mov	r1, #255	; 0xff
  70b6dc:	e5c01001 	strb	r1, [r0, #1]
  70b6e0:	e5c01002 	strb	r1, [r0, #2]
  70b6e4:	e5c01003 	strb	r1, [r0, #3]
  70b6e8:	e59f0590 	ldr	r0, [pc, #1424]	; 70bc80 <noMove_DA+0x28>
  70b6ec:	e59f1578 	ldr	r1, [pc, #1400]	; 70bc6c <noMove_DA+0x14>
  70b6f0:	e5d11000 	ldrb	r1, [r1]
  70b6f4:	e5c01000 	strb	r1, [r0]
  70b6f8:	e3a010ff 	mov	r1, #255	; 0xff
  70b6fc:	e5c01001 	strb	r1, [r0, #1]
  70b700:	e5c01002 	strb	r1, [r0, #2]
  70b704:	e5c01003 	strb	r1, [r0, #3]
  70b708:	e59f3598 	ldr	r3, [pc, #1432]	; 70bca8 <noMove_DA+0x50>
  70b70c:	e59f2574 	ldr	r2, [pc, #1396]	; 70bc88 <noMove_DA+0x30>
  70b710:	e5823000 	str	r3, [r2]
  70b714:	e59f3590 	ldr	r3, [pc, #1424]	; 70bcac <noMove_DA+0x54>
  70b718:	e59f2570 	ldr	r2, [pc, #1392]	; 70bc90 <noMove_DA+0x38>
  70b71c:	e5823000 	str	r3, [r2]
  70b720:	e3a03080 	mov	r3, #128	; 0x80
  70b724:	e59f2568 	ldr	r2, [pc, #1384]	; 70bc94 <noMove_DA+0x3c>
  70b728:	e5c23000 	strb	r3, [r2]
  70b72c:	e3a03020 	mov	r3, #32
  70b730:	e59f5560 	ldr	r5, [pc, #1376]	; 70bc98 <noMove_DA+0x40>
  70b734:	e5c53000 	strb	r3, [r5]
  70b738:	e59f055c 	ldr	r0, [pc, #1372]	; 70bc9c <noMove_DA+0x44>
  70b73c:	e5d01000 	ldrb	r1, [r0]
  70b740:	e2411002 	sub	r1, r1, #2
  70b744:	e5c01000 	strb	r1, [r0]
  70b748:	e59f0550 	ldr	r0, [pc, #1360]	; 70bca0 <noMove_DA+0x48>
  70b74c:	e3a01004 	mov	r1, #4
  70b750:	e5c01000 	strb	r1, [r0]
  70b754:	e59f0548 	ldr	r0, [pc, #1352]	; 70bca4 <noMove_DA+0x4c>
  70b758:	e3a01002 	mov	r1, #2
  70b75c:	e5c01000 	strb	r1, [r0]
  70b760:	eb00112c 	bl	70fc18 <drawSquareBlock>

0070b764 <noMove_BC>:
  70b764:	e49de004 	pop	{lr}		; (ldr lr, [sp], #4)
  70b768:	e1a0f00e 	mov	pc, lr

0070b76c <rotate0_CD>:
  70b76c:	e52de004 	push	{lr}		; (str lr, [sp, #-4]!)
  70b770:	e59f04e8 	ldr	r0, [pc, #1256]	; 70bc60 <noMove_DA+0x8>
  70b774:	e59f24e8 	ldr	r2, [pc, #1256]	; 70bc64 <noMove_DA+0xc>
  70b778:	e5d22000 	ldrb	r2, [r2]
  70b77c:	e1a01002 	mov	r1, r2
  70b780:	e2422014 	sub	r2, r2, #20
  70b784:	e2822001 	add	r2, r2, #1
  70b788:	ebfffe10 	bl	70afd0 <checkIfTwentyDiff>
  70b78c:	e3530000 	cmp	r3, #0
  70b790:	0a000094 	beq	70b9e8 <noMove_CD>
  70b794:	e35200c7 	cmp	r2, #199	; 0xc7
  70b798:	ca000092 	bgt	70b9e8 <noMove_CD>
  70b79c:	e3520000 	cmp	r2, #0
  70b7a0:	ba000090 	blt	70b9e8 <noMove_CD>
  70b7a4:	e7d01002 	ldrb	r1, [r0, r2]
  70b7a8:	e3510001 	cmp	r1, #1
  70b7ac:	aa00008d 	bge	70b9e8 <noMove_CD>
  70b7b0:	e59f04a8 	ldr	r0, [pc, #1192]	; 70bc60 <noMove_DA+0x8>
  70b7b4:	e59f24b4 	ldr	r2, [pc, #1204]	; 70bc70 <noMove_DA+0x18>
  70b7b8:	e5d22000 	ldrb	r2, [r2]
  70b7bc:	e1a01002 	mov	r1, r2
  70b7c0:	e242200a 	sub	r2, r2, #10
  70b7c4:	ebfffde8 	bl	70af6c <checkIfDifferentLine>
  70b7c8:	e3530000 	cmp	r3, #0
  70b7cc:	0a000085 	beq	70b9e8 <noMove_CD>
  70b7d0:	e35200c7 	cmp	r2, #199	; 0xc7
  70b7d4:	ca000083 	bgt	70b9e8 <noMove_CD>
  70b7d8:	e3520000 	cmp	r2, #0
  70b7dc:	ba000081 	blt	70b9e8 <noMove_CD>
  70b7e0:	e7d01002 	ldrb	r1, [r0, r2]
  70b7e4:	e3510001 	cmp	r1, #1
  70b7e8:	aa00007e 	bge	70b9e8 <noMove_CD>
  70b7ec:	e59f046c 	ldr	r0, [pc, #1132]	; 70bc60 <noMove_DA+0x8>
  70b7f0:	e59f2474 	ldr	r2, [pc, #1140]	; 70bc6c <noMove_DA+0x14>
  70b7f4:	e5d22000 	ldrb	r2, [r2]
  70b7f8:	e1a01002 	mov	r1, r2
  70b7fc:	e282200a 	add	r2, r2, #10
  70b800:	e2422002 	sub	r2, r2, #2
  70b804:	ebfffdd8 	bl	70af6c <checkIfDifferentLine>
  70b808:	e3530000 	cmp	r3, #0
  70b80c:	0a000075 	beq	70b9e8 <noMove_CD>
  70b810:	e35200c7 	cmp	r2, #199	; 0xc7
  70b814:	ca000073 	bgt	70b9e8 <noMove_CD>
  70b818:	e3520000 	cmp	r2, #0
  70b81c:	ba000071 	blt	70b9e8 <noMove_CD>
  70b820:	e7d01002 	ldrb	r1, [r0, r2]
  70b824:	e3510001 	cmp	r1, #1
  70b828:	aa00006e 	bge	70b9e8 <noMove_CD>
  70b82c:	e59f042c 	ldr	r0, [pc, #1068]	; 70bc60 <noMove_DA+0x8>
  70b830:	e59f242c 	ldr	r2, [pc, #1068]	; 70bc64 <noMove_DA+0xc>
  70b834:	e5d22000 	ldrb	r2, [r2]
  70b838:	e3a01000 	mov	r1, #0
  70b83c:	e7c01002 	strb	r1, [r0, r2]
  70b840:	e59f0418 	ldr	r0, [pc, #1048]	; 70bc60 <noMove_DA+0x8>
  70b844:	e59f2424 	ldr	r2, [pc, #1060]	; 70bc70 <noMove_DA+0x18>
  70b848:	e5d22000 	ldrb	r2, [r2]
  70b84c:	e3a01000 	mov	r1, #0
  70b850:	e7c01002 	strb	r1, [r0, r2]
  70b854:	e59f0404 	ldr	r0, [pc, #1028]	; 70bc60 <noMove_DA+0x8>
  70b858:	e59f2408 	ldr	r2, [pc, #1032]	; 70bc68 <noMove_DA+0x10>
  70b85c:	e5d22000 	ldrb	r2, [r2]
  70b860:	e3a01000 	mov	r1, #0
  70b864:	e7c01002 	strb	r1, [r0, r2]
  70b868:	e59f03f0 	ldr	r0, [pc, #1008]	; 70bc60 <noMove_DA+0x8>
  70b86c:	e59f23f8 	ldr	r2, [pc, #1016]	; 70bc6c <noMove_DA+0x14>
  70b870:	e5d22000 	ldrb	r2, [r2]
  70b874:	e3a01000 	mov	r1, #0
  70b878:	e7c01002 	strb	r1, [r0, r2]
  70b87c:	eb0010e5 	bl	70fc18 <drawSquareBlock>
  70b880:	e59f03dc 	ldr	r0, [pc, #988]	; 70bc64 <noMove_DA+0xc>
  70b884:	e5d02000 	ldrb	r2, [r0]
  70b888:	e2422014 	sub	r2, r2, #20
  70b88c:	e2822001 	add	r2, r2, #1
  70b890:	e5c02000 	strb	r2, [r0]
  70b894:	e59f03d4 	ldr	r0, [pc, #980]	; 70bc70 <noMove_DA+0x18>
  70b898:	e5d02000 	ldrb	r2, [r0]
  70b89c:	e242200a 	sub	r2, r2, #10
  70b8a0:	e5c02000 	strb	r2, [r0]
  70b8a4:	e59f03bc 	ldr	r0, [pc, #956]	; 70bc68 <noMove_DA+0x10>
  70b8a8:	e5d02000 	ldrb	r2, [r0]
  70b8ac:	e2422001 	sub	r2, r2, #1
  70b8b0:	e5c02000 	strb	r2, [r0]
  70b8b4:	e59f03b0 	ldr	r0, [pc, #944]	; 70bc6c <noMove_DA+0x14>
  70b8b8:	e5d02000 	ldrb	r2, [r0]
  70b8bc:	e282200a 	add	r2, r2, #10
  70b8c0:	e2422002 	sub	r2, r2, #2
  70b8c4:	e5c02000 	strb	r2, [r0]
  70b8c8:	e59f33a4 	ldr	r3, [pc, #932]	; 70bc74 <noMove_DA+0x1c>
  70b8cc:	e5d33000 	ldrb	r3, [r3]
  70b8d0:	e59f2388 	ldr	r2, [pc, #904]	; 70bc60 <noMove_DA+0x8>
  70b8d4:	e59f0388 	ldr	r0, [pc, #904]	; 70bc64 <noMove_DA+0xc>
  70b8d8:	e5d01000 	ldrb	r1, [r0]
  70b8dc:	e7c23001 	strb	r3, [r2, r1]
  70b8e0:	e59f0388 	ldr	r0, [pc, #904]	; 70bc70 <noMove_DA+0x18>
  70b8e4:	e5d01000 	ldrb	r1, [r0]
  70b8e8:	e7c23001 	strb	r3, [r2, r1]
  70b8ec:	e59f0374 	ldr	r0, [pc, #884]	; 70bc68 <noMove_DA+0x10>
  70b8f0:	e5d01000 	ldrb	r1, [r0]
  70b8f4:	e7c23001 	strb	r3, [r2, r1]
  70b8f8:	e59f036c 	ldr	r0, [pc, #876]	; 70bc6c <noMove_DA+0x14>
  70b8fc:	e5d01000 	ldrb	r1, [r0]
  70b900:	e7c23001 	strb	r3, [r2, r1]
  70b904:	e59f036c 	ldr	r0, [pc, #876]	; 70bc78 <noMove_DA+0x20>
  70b908:	e59f335c 	ldr	r3, [pc, #860]	; 70bc6c <noMove_DA+0x14>
  70b90c:	e5d31000 	ldrb	r1, [r3]
  70b910:	e5c01000 	strb	r1, [r0]
  70b914:	e3a010ff 	mov	r1, #255	; 0xff
  70b918:	e5c01001 	strb	r1, [r0, #1]
  70b91c:	e5c01002 	strb	r1, [r0, #2]
  70b920:	e5c01003 	strb	r1, [r0, #3]
  70b924:	e59f0350 	ldr	r0, [pc, #848]	; 70bc7c <noMove_DA+0x24>
  70b928:	e59f3334 	ldr	r3, [pc, #820]	; 70bc64 <noMove_DA+0xc>
  70b92c:	e5931000 	ldr	r1, [r3]
  70b930:	e5c01000 	strb	r1, [r0]
  70b934:	e59f3334 	ldr	r3, [pc, #820]	; 70bc70 <noMove_DA+0x18>
  70b938:	e5d31000 	ldrb	r1, [r3]
  70b93c:	e5c01001 	strb	r1, [r0, #1]
  70b940:	e59f3320 	ldr	r3, [pc, #800]	; 70bc68 <noMove_DA+0x10>
  70b944:	e5d31000 	ldrb	r1, [r3]
  70b948:	e5c01002 	strb	r1, [r0, #2]
  70b94c:	e59f3318 	ldr	r3, [pc, #792]	; 70bc6c <noMove_DA+0x14>
  70b950:	e5d31000 	ldrb	r1, [r3]
  70b954:	e5c01003 	strb	r1, [r0, #3]
  70b958:	e59f0320 	ldr	r0, [pc, #800]	; 70bc80 <noMove_DA+0x28>
  70b95c:	e59f3300 	ldr	r3, [pc, #768]	; 70bc64 <noMove_DA+0xc>
  70b960:	e5d31000 	ldrb	r1, [r3]
  70b964:	e5c01000 	strb	r1, [r0]
  70b968:	e59f3300 	ldr	r3, [pc, #768]	; 70bc70 <noMove_DA+0x18>
  70b96c:	e5d31000 	ldrb	r1, [r3]
  70b970:	e5c01001 	strb	r1, [r0, #1]
  70b974:	e59f32ec 	ldr	r3, [pc, #748]	; 70bc68 <noMove_DA+0x10>
  70b978:	e5d31000 	ldrb	r1, [r3]
  70b97c:	e5c01002 	strb	r1, [r0, #2]
  70b980:	e59f32e4 	ldr	r3, [pc, #740]	; 70bc6c <noMove_DA+0x14>
  70b984:	e5d31000 	ldrb	r1, [r3]
  70b988:	e5c01003 	strb	r1, [r0, #3]
  70b98c:	e59f32f0 	ldr	r3, [pc, #752]	; 70bc84 <noMove_DA+0x2c>
  70b990:	e59f22f0 	ldr	r2, [pc, #752]	; 70bc88 <noMove_DA+0x30>
  70b994:	e5823000 	str	r3, [r2]
  70b998:	e59f32ec 	ldr	r3, [pc, #748]	; 70bc8c <noMove_DA+0x34>
  70b99c:	e59f22ec 	ldr	r2, [pc, #748]	; 70bc90 <noMove_DA+0x38>
  70b9a0:	e5823000 	str	r3, [r2]
  70b9a4:	e3a03020 	mov	r3, #32
  70b9a8:	e59f22e4 	ldr	r2, [pc, #740]	; 70bc94 <noMove_DA+0x3c>
  70b9ac:	e5c23000 	strb	r3, [r2]
  70b9b0:	e3a03080 	mov	r3, #128	; 0x80
  70b9b4:	e59f52dc 	ldr	r5, [pc, #732]	; 70bc98 <noMove_DA+0x40>
  70b9b8:	e5c53000 	strb	r3, [r5]
  70b9bc:	e59f02d8 	ldr	r0, [pc, #728]	; 70bc9c <noMove_DA+0x44>
  70b9c0:	e5d01000 	ldrb	r1, [r0]
  70b9c4:	e2811001 	add	r1, r1, #1
  70b9c8:	e5c01000 	strb	r1, [r0]
  70b9cc:	e59f02cc 	ldr	r0, [pc, #716]	; 70bca0 <noMove_DA+0x48>
  70b9d0:	e3a01001 	mov	r1, #1
  70b9d4:	e5c01000 	strb	r1, [r0]
  70b9d8:	e59f02c4 	ldr	r0, [pc, #708]	; 70bca4 <noMove_DA+0x4c>
  70b9dc:	e3a01003 	mov	r1, #3
  70b9e0:	e5c01000 	strb	r1, [r0]
  70b9e4:	eb00108b 	bl	70fc18 <drawSquareBlock>

0070b9e8 <noMove_CD>:
  70b9e8:	e49de004 	pop	{lr}		; (ldr lr, [sp], #4)
  70b9ec:	e1a0f00e 	mov	pc, lr

0070b9f0 <rotate0_DA>:
  70b9f0:	e52de004 	push	{lr}		; (str lr, [sp, #-4]!)
  70b9f4:	e59f0264 	ldr	r0, [pc, #612]	; 70bc60 <noMove_DA+0x8>
  70b9f8:	e59f2264 	ldr	r2, [pc, #612]	; 70bc64 <noMove_DA+0xc>
  70b9fc:	e5d22000 	ldrb	r2, [r2]
  70ba00:	e1a01002 	mov	r1, r2
  70ba04:	e282200a 	add	r2, r2, #10
  70ba08:	e2422001 	sub	r2, r2, #1
  70ba0c:	ebfffd56 	bl	70af6c <checkIfDifferentLine>
  70ba10:	e3530000 	cmp	r3, #0
  70ba14:	0a00008f 	beq	70bc58 <noMove_DA>
  70ba18:	e35200c7 	cmp	r2, #199	; 0xc7
  70ba1c:	ca00008d 	bgt	70bc58 <noMove_DA>
  70ba20:	e3520000 	cmp	r2, #0
  70ba24:	ba00008b 	blt	70bc58 <noMove_DA>
  70ba28:	e7d01002 	ldrb	r1, [r0, r2]
  70ba2c:	e3510001 	cmp	r1, #1
  70ba30:	aa000088 	bge	70bc58 <noMove_DA>
  70ba34:	e59f0224 	ldr	r0, [pc, #548]	; 70bc60 <noMove_DA+0x8>
  70ba38:	e59f2228 	ldr	r2, [pc, #552]	; 70bc68 <noMove_DA+0x10>
  70ba3c:	e5d22000 	ldrb	r2, [r2]
  70ba40:	e1a01002 	mov	r1, r2
  70ba44:	e242200a 	sub	r2, r2, #10
  70ba48:	e2822001 	add	r2, r2, #1
  70ba4c:	ebfffd46 	bl	70af6c <checkIfDifferentLine>
  70ba50:	e3530000 	cmp	r3, #0
  70ba54:	0a00007f 	beq	70bc58 <noMove_DA>
  70ba58:	e35200c7 	cmp	r2, #199	; 0xc7
  70ba5c:	ca00007d 	bgt	70bc58 <noMove_DA>
  70ba60:	e3520000 	cmp	r2, #0
  70ba64:	ba00007b 	blt	70bc58 <noMove_DA>
  70ba68:	e7d01002 	ldrb	r1, [r0, r2]
  70ba6c:	e3510001 	cmp	r1, #1
  70ba70:	aa000078 	bge	70bc58 <noMove_DA>
  70ba74:	e59f01e4 	ldr	r0, [pc, #484]	; 70bc60 <noMove_DA+0x8>
  70ba78:	e59f21ec 	ldr	r2, [pc, #492]	; 70bc6c <noMove_DA+0x14>
  70ba7c:	e5d22000 	ldrb	r2, [r2]
  70ba80:	e1a01002 	mov	r1, r2
  70ba84:	e2422014 	sub	r2, r2, #20
  70ba88:	e2822002 	add	r2, r2, #2
  70ba8c:	ebfffd4f 	bl	70afd0 <checkIfTwentyDiff>
  70ba90:	e3530000 	cmp	r3, #0
  70ba94:	0a00006f 	beq	70bc58 <noMove_DA>
  70ba98:	e35200c7 	cmp	r2, #199	; 0xc7
  70ba9c:	ca00006d 	bgt	70bc58 <noMove_DA>
  70baa0:	e3520000 	cmp	r2, #0
  70baa4:	ba00006b 	blt	70bc58 <noMove_DA>
  70baa8:	e7d01002 	ldrb	r1, [r0, r2]
  70baac:	e3510001 	cmp	r1, #1
  70bab0:	aa000068 	bge	70bc58 <noMove_DA>
  70bab4:	e59f01a4 	ldr	r0, [pc, #420]	; 70bc60 <noMove_DA+0x8>
  70bab8:	e59f21a4 	ldr	r2, [pc, #420]	; 70bc64 <noMove_DA+0xc>
  70babc:	e5d22000 	ldrb	r2, [r2]
  70bac0:	e3a01000 	mov	r1, #0
  70bac4:	e7c01002 	strb	r1, [r0, r2]
  70bac8:	e59f0190 	ldr	r0, [pc, #400]	; 70bc60 <noMove_DA+0x8>
  70bacc:	e59f219c 	ldr	r2, [pc, #412]	; 70bc70 <noMove_DA+0x18>
  70bad0:	e5d22000 	ldrb	r2, [r2]
  70bad4:	e3a01000 	mov	r1, #0
  70bad8:	e7c01002 	strb	r1, [r0, r2]
  70badc:	e59f017c 	ldr	r0, [pc, #380]	; 70bc60 <noMove_DA+0x8>
  70bae0:	e59f2180 	ldr	r2, [pc, #384]	; 70bc68 <noMove_DA+0x10>
  70bae4:	e5d22000 	ldrb	r2, [r2]
  70bae8:	e3a01000 	mov	r1, #0
  70baec:	e7c01002 	strb	r1, [r0, r2]
  70baf0:	e59f0168 	ldr	r0, [pc, #360]	; 70bc60 <noMove_DA+0x8>
  70baf4:	e59f2170 	ldr	r2, [pc, #368]	; 70bc6c <noMove_DA+0x14>
  70baf8:	e5d22000 	ldrb	r2, [r2]
  70bafc:	e3a01000 	mov	r1, #0
  70bb00:	e7c01002 	strb	r1, [r0, r2]
  70bb04:	eb001043 	bl	70fc18 <drawSquareBlock>
  70bb08:	e59f0154 	ldr	r0, [pc, #340]	; 70bc64 <noMove_DA+0xc>
  70bb0c:	e5d02000 	ldrb	r2, [r0]
  70bb10:	e282200a 	add	r2, r2, #10
  70bb14:	e2422001 	sub	r2, r2, #1
  70bb18:	e5c02000 	strb	r2, [r0]
  70bb1c:	e59f014c 	ldr	r0, [pc, #332]	; 70bc70 <noMove_DA+0x18>
  70bb20:	e5d02000 	ldrb	r2, [r0]
  70bb24:	e59f013c 	ldr	r0, [pc, #316]	; 70bc68 <noMove_DA+0x10>
  70bb28:	e5d02000 	ldrb	r2, [r0]
  70bb2c:	e242200a 	sub	r2, r2, #10
  70bb30:	e2822001 	add	r2, r2, #1
  70bb34:	e5c02000 	strb	r2, [r0]
  70bb38:	e59f012c 	ldr	r0, [pc, #300]	; 70bc6c <noMove_DA+0x14>
  70bb3c:	e5d02000 	ldrb	r2, [r0]
  70bb40:	e2422014 	sub	r2, r2, #20
  70bb44:	e2822002 	add	r2, r2, #2
  70bb48:	e5c02000 	strb	r2, [r0]
  70bb4c:	e59f3120 	ldr	r3, [pc, #288]	; 70bc74 <noMove_DA+0x1c>
  70bb50:	e5d33000 	ldrb	r3, [r3]
  70bb54:	e59f2104 	ldr	r2, [pc, #260]	; 70bc60 <noMove_DA+0x8>
  70bb58:	e59f0104 	ldr	r0, [pc, #260]	; 70bc64 <noMove_DA+0xc>
  70bb5c:	e5d01000 	ldrb	r1, [r0]
  70bb60:	e7c23001 	strb	r3, [r2, r1]
  70bb64:	e59f0104 	ldr	r0, [pc, #260]	; 70bc70 <noMove_DA+0x18>
  70bb68:	e5d01000 	ldrb	r1, [r0]
  70bb6c:	e7c23001 	strb	r3, [r2, r1]
  70bb70:	e59f00f0 	ldr	r0, [pc, #240]	; 70bc68 <noMove_DA+0x10>
  70bb74:	e5d01000 	ldrb	r1, [r0]
  70bb78:	e7c23001 	strb	r3, [r2, r1]
  70bb7c:	e59f00e8 	ldr	r0, [pc, #232]	; 70bc6c <noMove_DA+0x14>
  70bb80:	e5d01000 	ldrb	r1, [r0]
  70bb84:	e7c23001 	strb	r3, [r2, r1]
  70bb88:	e59f00e8 	ldr	r0, [pc, #232]	; 70bc78 <noMove_DA+0x20>
  70bb8c:	e59f30d0 	ldr	r3, [pc, #208]	; 70bc64 <noMove_DA+0xc>
  70bb90:	e5d31000 	ldrb	r1, [r3]
  70bb94:	e5c01000 	strb	r1, [r0]
  70bb98:	e59f30d0 	ldr	r3, [pc, #208]	; 70bc70 <noMove_DA+0x18>
  70bb9c:	e5d31000 	ldrb	r1, [r3]
  70bba0:	e5c01001 	strb	r1, [r0, #1]
  70bba4:	e59f30bc 	ldr	r3, [pc, #188]	; 70bc68 <noMove_DA+0x10>
  70bba8:	e5d31000 	ldrb	r1, [r3]
  70bbac:	e5c01002 	strb	r1, [r0, #2]
  70bbb0:	e59f30b4 	ldr	r3, [pc, #180]	; 70bc6c <noMove_DA+0x14>
  70bbb4:	e5d31000 	ldrb	r1, [r3]
  70bbb8:	e5c01003 	strb	r1, [r0, #3]
  70bbbc:	e59f00b8 	ldr	r0, [pc, #184]	; 70bc7c <noMove_DA+0x24>
  70bbc0:	e59f309c 	ldr	r3, [pc, #156]	; 70bc64 <noMove_DA+0xc>
  70bbc4:	e5d31000 	ldrb	r1, [r3]
  70bbc8:	e5c01000 	strb	r1, [r0]
  70bbcc:	e3a010ff 	mov	r1, #255	; 0xff
  70bbd0:	e5c01001 	strb	r1, [r0, #1]
  70bbd4:	e5c01002 	strb	r1, [r0, #2]
  70bbd8:	e5c01003 	strb	r1, [r0, #3]
  70bbdc:	e59f009c 	ldr	r0, [pc, #156]	; 70bc80 <noMove_DA+0x28>
  70bbe0:	e59f3084 	ldr	r3, [pc, #132]	; 70bc6c <noMove_DA+0x14>
  70bbe4:	e5d31000 	ldrb	r1, [r3]
  70bbe8:	e5c01000 	strb	r1, [r0]
  70bbec:	e3a010ff 	mov	r1, #255	; 0xff
  70bbf0:	e5c01001 	strb	r1, [r0, #1]
  70bbf4:	e5c01002 	strb	r1, [r0, #2]
  70bbf8:	e5c01003 	strb	r1, [r0, #3]
  70bbfc:	e59f30a4 	ldr	r3, [pc, #164]	; 70bca8 <noMove_DA+0x50>
  70bc00:	e59f2080 	ldr	r2, [pc, #128]	; 70bc88 <noMove_DA+0x30>
  70bc04:	e5823000 	str	r3, [r2]
  70bc08:	e59f309c 	ldr	r3, [pc, #156]	; 70bcac <noMove_DA+0x54>
  70bc0c:	e59f207c 	ldr	r2, [pc, #124]	; 70bc90 <noMove_DA+0x38>
  70bc10:	e5823000 	str	r3, [r2]
  70bc14:	e3a03080 	mov	r3, #128	; 0x80
  70bc18:	e59f2074 	ldr	r2, [pc, #116]	; 70bc94 <noMove_DA+0x3c>
  70bc1c:	e5c23000 	strb	r3, [r2]
  70bc20:	e3a03020 	mov	r3, #32
  70bc24:	e59f506c 	ldr	r5, [pc, #108]	; 70bc98 <noMove_DA+0x40>
  70bc28:	e5c53000 	strb	r3, [r5]
  70bc2c:	e59f0068 	ldr	r0, [pc, #104]	; 70bc9c <noMove_DA+0x44>
  70bc30:	e5d01000 	ldrb	r1, [r0]
  70bc34:	e2411001 	sub	r1, r1, #1
  70bc38:	e5c01000 	strb	r1, [r0]
  70bc3c:	e59f005c 	ldr	r0, [pc, #92]	; 70bca0 <noMove_DA+0x48>
  70bc40:	e3a01004 	mov	r1, #4
  70bc44:	e5c01000 	strb	r1, [r0]
  70bc48:	e59f0054 	ldr	r0, [pc, #84]	; 70bca4 <noMove_DA+0x4c>
  70bc4c:	e3a01000 	mov	r1, #0
  70bc50:	e5c01000 	strb	r1, [r0]
  70bc54:	eb000fef 	bl	70fc18 <drawSquareBlock>

0070bc58 <noMove_DA>:
  70bc58:	e49de004 	pop	{lr}		; (ldr lr, [sp], #4)
  70bc5c:	e1a0f00e 	mov	pc, lr
  70bc60:	006c4e98 	.word	0x006c4e98
  70bc64:	006c4f60 	.word	0x006c4f60
  70bc68:	006c4f62 	.word	0x006c4f62
  70bc6c:	006c4f63 	.word	0x006c4f63
  70bc70:	006c4f61 	.word	0x006c4f61
  70bc74:	006c4f7c 	.word	0x006c4f7c
  70bc78:	006c4f64 	.word	0x006c4f64
  70bc7c:	006c4f68 	.word	0x006c4f68
  70bc80:	006c4f6c 	.word	0x006c4f6c
  70bc84:	0065ce98 	.word	0x0065ce98
  70bc88:	006c4f70 	.word	0x006c4f70
  70bc8c:	0065ee98 	.word	0x0065ee98
  70bc90:	006c4f74 	.word	0x006c4f74
  70bc94:	006c4f78 	.word	0x006c4f78
  70bc98:	006c4f79 	.word	0x006c4f79
  70bc9c:	006c4f7a 	.word	0x006c4f7a
  70bca0:	006c4f7b 	.word	0x006c4f7b
  70bca4:	006c4f7d 	.word	0x006c4f7d
  70bca8:	00658e98 	.word	0x00658e98
  70bcac:	0065ae98 	.word	0x0065ae98

0070bcb0 <EnableJTAG>:
  70bcb0:	e52de004 	push	{lr}		; (str lr, [sp, #-4]!)
  70bcb4:	e59f0064 	ldr	r0, [pc, #100]	; 70bd20 <dowaitloop+0xc>
  70bcb8:	e0211001 	eor	r1, r1, r1
  70bcbc:	e5801000 	str	r1, [r0]
  70bcc0:	eb000012 	bl	70bd10 <dowait>
  70bcc4:	e59f0058 	ldr	r0, [pc, #88]	; 70bd24 <dowaitloop+0x10>
  70bcc8:	e59f1058 	ldr	r1, [pc, #88]	; 70bd28 <dowaitloop+0x14>
  70bccc:	e5801000 	str	r1, [r0]
  70bcd0:	eb00000e 	bl	70bd10 <dowait>
  70bcd4:	e0211001 	eor	r1, r1, r1
  70bcd8:	e5801000 	str	r1, [r0]
  70bcdc:	e59f0048 	ldr	r0, [pc, #72]	; 70bd2c <dowaitloop+0x18>
  70bce0:	e5901000 	ldr	r1, [r0]
  70bce4:	e3c11a07 	bic	r1, r1, #28672	; 0x7000
  70bce8:	e3811a02 	orr	r1, r1, #8192	; 0x2000
  70bcec:	e5801000 	str	r1, [r0]
  70bcf0:	e59f0038 	ldr	r0, [pc, #56]	; 70bd30 <dowaitloop+0x1c>
  70bcf4:	e5901000 	ldr	r1, [r0]
  70bcf8:	e59f2034 	ldr	r2, [pc, #52]	; 70bd34 <dowaitloop+0x20>
  70bcfc:	e1c11002 	bic	r1, r1, r2
  70bd00:	e59f2030 	ldr	r2, [pc, #48]	; 70bd38 <dowaitloop+0x24>
  70bd04:	e1811002 	orr	r1, r1, r2
  70bd08:	e5801000 	str	r1, [r0]
  70bd0c:	e49df004 	pop	{pc}		; (ldr pc, [sp], #4)

0070bd10 <dowait>:
  70bd10:	e3a02f4b 	mov	r2, #300	; 0x12c

0070bd14 <dowaitloop>:
  70bd14:	e2522001 	subs	r2, r2, #1
  70bd18:	1afffffd 	bne	70bd14 <dowaitloop>
  70bd1c:	e12fff1e 	bx	lr
  70bd20:	3f200094 	.word	0x3f200094
  70bd24:	3f200098 	.word	0x3f200098
  70bd28:	0bc00010 	.word	0x0bc00010
  70bd2c:	3f200000 	.word	0x3f200000
  70bd30:	3f200008 	.word	0x3f200008
  70bd34:	00e3ffc0 	.word	0x00e3ffc0
  70bd38:	0061b6c0 	.word	0x0061b6c0

0070bd3c <InitFrameBuffer>:
  70bd3c:	e59f2068 	ldr	r2, [pc, #104]	; 70bdac <pointerWaitLoop$+0x1c>
  70bd40:	e59f3068 	ldr	r3, [pc, #104]	; 70bdb0 <pointerWaitLoop$+0x20>

0070bd44 <mBoxFullLoop$>:
  70bd44:	e5920018 	ldr	r0, [r2, #24]
  70bd48:	e3100102 	tst	r0, #-2147483648	; 0x80000000
  70bd4c:	1afffffc 	bne	70bd44 <mBoxFullLoop$>
  70bd50:	e2830101 	add	r0, r3, #1073741824	; 0x40000000
  70bd54:	e3800008 	orr	r0, r0, #8
  70bd58:	e5820020 	str	r0, [r2, #32]

0070bd5c <mBoxEmptyLoop$>:
  70bd5c:	e5920018 	ldr	r0, [r2, #24]
  70bd60:	e3100101 	tst	r0, #1073741824	; 0x40000000
  70bd64:	1afffffc 	bne	70bd5c <mBoxEmptyLoop$>
  70bd68:	e5920000 	ldr	r0, [r2]
  70bd6c:	e200100f 	and	r1, r0, #15
  70bd70:	e3310008 	teq	r1, #8
  70bd74:	1afffff8 	bne	70bd5c <mBoxEmptyLoop$>
  70bd78:	e59f0030 	ldr	r0, [pc, #48]	; 70bdb0 <pointerWaitLoop$+0x20>
  70bd7c:	e5901004 	ldr	r1, [r0, #4]
  70bd80:	e3310102 	teq	r1, #-2147483648	; 0x80000000
  70bd84:	0a000001 	beq	70bd90 <pointerWaitLoop$>
  70bd88:	13a00000 	movne	r0, #0
  70bd8c:	112fff1e 	bxne	lr

0070bd90 <pointerWaitLoop$>:
  70bd90:	e59f001c 	ldr	r0, [pc, #28]	; 70bdb4 <pointerWaitLoop$+0x24>
  70bd94:	e5900000 	ldr	r0, [r0]
  70bd98:	e3300000 	teq	r0, #0
  70bd9c:	0afffffb 	beq	70bd90 <pointerWaitLoop$>
  70bda0:	e59f3010 	ldr	r3, [pc, #16]	; 70bdb8 <pointerWaitLoop$+0x28>
  70bda4:	e5830000 	str	r0, [r3]
  70bda8:	e12fff1e 	bx	lr
  70bdac:	3f00b880 	.word	0x3f00b880
  70bdb0:	00057290 	.word	0x00057290
  70bdb4:	000572dc 	.word	0x000572dc
  70bdb8:	000572f0 	.word	0x000572f0

0070bdbc <insertNewIBeam>:
  70bdbc:	e52de004 	push	{lr}		; (str lr, [sp, #-4]!)
  70bdc0:	e92d0120 	push	{r5, r8}
  70bdc4:	e59f0c14 	ldr	r0, [pc, #3092]	; 70c9e0 <insertNewLOBeam+0x1bc>
  70bdc8:	e5d01000 	ldrb	r1, [r0]
  70bdcc:	e3510001 	cmp	r1, #1
  70bdd0:	0a000acf 	beq	70e914 <quitProgram>
  70bdd4:	e5d01001 	ldrb	r1, [r0, #1]
  70bdd8:	e3510001 	cmp	r1, #1
  70bddc:	0a000acc 	beq	70e914 <quitProgram>
  70bde0:	e5d01002 	ldrb	r1, [r0, #2]
  70bde4:	e3510001 	cmp	r1, #1
  70bde8:	0a000ac9 	beq	70e914 <quitProgram>
  70bdec:	e5d01003 	ldrb	r1, [r0, #3]
  70bdf0:	e3510001 	cmp	r1, #1
  70bdf4:	0a000ac6 	beq	70e914 <quitProgram>
  70bdf8:	e3a01006 	mov	r1, #6
  70bdfc:	eb000a02 	bl	70e60c <xorShift>
  70be00:	e1a08001 	mov	r8, r1
  70be04:	e59f3bd8 	ldr	r3, [pc, #3032]	; 70c9e4 <insertNewLOBeam+0x1c0>
  70be08:	e5c38000 	strb	r8, [r3]
  70be0c:	e59f0bd4 	ldr	r0, [pc, #3028]	; 70c9e8 <insertNewLOBeam+0x1c4>
  70be10:	e3a01001 	mov	r1, #1
  70be14:	e5c01000 	strb	r1, [r0]
  70be18:	e59f0bcc 	ldr	r0, [pc, #3020]	; 70c9ec <insertNewLOBeam+0x1c8>
  70be1c:	e3a01000 	mov	r1, #0
  70be20:	e0811008 	add	r1, r1, r8
  70be24:	e5c01000 	strb	r1, [r0]
  70be28:	e59f0bc0 	ldr	r0, [pc, #3008]	; 70c9f0 <insertNewLOBeam+0x1cc>
  70be2c:	e3a01001 	mov	r1, #1
  70be30:	e0811008 	add	r1, r1, r8
  70be34:	e5c01000 	strb	r1, [r0]
  70be38:	e59f0bb4 	ldr	r0, [pc, #2996]	; 70c9f4 <insertNewLOBeam+0x1d0>
  70be3c:	e3a01002 	mov	r1, #2
  70be40:	e0811008 	add	r1, r1, r8
  70be44:	e5c01000 	strb	r1, [r0]
  70be48:	e59f0ba8 	ldr	r0, [pc, #2984]	; 70c9f8 <insertNewLOBeam+0x1d4>
  70be4c:	e3a01003 	mov	r1, #3
  70be50:	e0811008 	add	r1, r1, r8
  70be54:	e5c01000 	strb	r1, [r0]
  70be58:	e59f0b9c 	ldr	r0, [pc, #2972]	; 70c9fc <insertNewLOBeam+0x1d8>
  70be5c:	e3a01000 	mov	r1, #0
  70be60:	e0811008 	add	r1, r1, r8
  70be64:	e5c01000 	strb	r1, [r0]
  70be68:	e3a01001 	mov	r1, #1
  70be6c:	e0811008 	add	r1, r1, r8
  70be70:	e5c01001 	strb	r1, [r0, #1]
  70be74:	e3a01002 	mov	r1, #2
  70be78:	e0811008 	add	r1, r1, r8
  70be7c:	e5c01002 	strb	r1, [r0, #2]
  70be80:	e3a01003 	mov	r1, #3
  70be84:	e0811008 	add	r1, r1, r8
  70be88:	e5c01003 	strb	r1, [r0, #3]
  70be8c:	e59f0b6c 	ldr	r0, [pc, #2924]	; 70ca00 <insertNewLOBeam+0x1dc>
  70be90:	e3a01000 	mov	r1, #0
  70be94:	e0811008 	add	r1, r1, r8
  70be98:	e5c01000 	strb	r1, [r0]
  70be9c:	e3a010ff 	mov	r1, #255	; 0xff
  70bea0:	e5c01001 	strb	r1, [r0, #1]
  70bea4:	e3a010ff 	mov	r1, #255	; 0xff
  70bea8:	e5c01002 	strb	r1, [r0, #2]
  70beac:	e3a010ff 	mov	r1, #255	; 0xff
  70beb0:	e5c01003 	strb	r1, [r0, #3]
  70beb4:	e59f0b48 	ldr	r0, [pc, #2888]	; 70ca04 <insertNewLOBeam+0x1e0>
  70beb8:	e3a010ff 	mov	r1, #255	; 0xff
  70bebc:	e5c01000 	strb	r1, [r0]
  70bec0:	e3a010ff 	mov	r1, #255	; 0xff
  70bec4:	e5c01001 	strb	r1, [r0, #1]
  70bec8:	e3a010ff 	mov	r1, #255	; 0xff
  70becc:	e5c01002 	strb	r1, [r0, #2]
  70bed0:	e3a01003 	mov	r1, #3
  70bed4:	e0811008 	add	r1, r1, r8
  70bed8:	e5c01003 	strb	r1, [r0, #3]
  70bedc:	e59f1b04 	ldr	r1, [pc, #2820]	; 70c9e8 <insertNewLOBeam+0x1c4>
  70bee0:	e5d11000 	ldrb	r1, [r1]
  70bee4:	e59f2b00 	ldr	r2, [pc, #2816]	; 70c9ec <insertNewLOBeam+0x1c8>
  70bee8:	e5d22000 	ldrb	r2, [r2]
  70beec:	e59f0aec 	ldr	r0, [pc, #2796]	; 70c9e0 <insertNewLOBeam+0x1bc>
  70bef0:	e7c01002 	strb	r1, [r0, r2]
  70bef4:	e59f2af4 	ldr	r2, [pc, #2804]	; 70c9f0 <insertNewLOBeam+0x1cc>
  70bef8:	e5d22000 	ldrb	r2, [r2]
  70befc:	e59f0adc 	ldr	r0, [pc, #2780]	; 70c9e0 <insertNewLOBeam+0x1bc>
  70bf00:	e7c01002 	strb	r1, [r0, r2]
  70bf04:	e59f2ae8 	ldr	r2, [pc, #2792]	; 70c9f4 <insertNewLOBeam+0x1d0>
  70bf08:	e5d22000 	ldrb	r2, [r2]
  70bf0c:	e59f0acc 	ldr	r0, [pc, #2764]	; 70c9e0 <insertNewLOBeam+0x1bc>
  70bf10:	e7c01002 	strb	r1, [r0, r2]
  70bf14:	e59f2adc 	ldr	r2, [pc, #2780]	; 70c9f8 <insertNewLOBeam+0x1d4>
  70bf18:	e5d22000 	ldrb	r2, [r2]
  70bf1c:	e59f0abc 	ldr	r0, [pc, #2748]	; 70c9e0 <insertNewLOBeam+0x1bc>
  70bf20:	e7c01002 	strb	r1, [r0, r2]
  70bf24:	e59f3adc 	ldr	r3, [pc, #2780]	; 70ca08 <insertNewLOBeam+0x1e4>
  70bf28:	e59f2adc 	ldr	r2, [pc, #2780]	; 70ca0c <insertNewLOBeam+0x1e8>
  70bf2c:	e5823000 	str	r3, [r2]
  70bf30:	e59f3ad8 	ldr	r3, [pc, #2776]	; 70ca10 <insertNewLOBeam+0x1ec>
  70bf34:	e59f2ad8 	ldr	r2, [pc, #2776]	; 70ca14 <insertNewLOBeam+0x1f0>
  70bf38:	e5823000 	str	r3, [r2]
  70bf3c:	e3a03080 	mov	r3, #128	; 0x80
  70bf40:	e59f2ad0 	ldr	r2, [pc, #2768]	; 70ca18 <insertNewLOBeam+0x1f4>
  70bf44:	e5c23000 	strb	r3, [r2]
  70bf48:	e3a03020 	mov	r3, #32
  70bf4c:	e59f5ac8 	ldr	r5, [pc, #2760]	; 70ca1c <insertNewLOBeam+0x1f8>
  70bf50:	e5c53000 	strb	r3, [r5]
  70bf54:	e3a01004 	mov	r1, #4
  70bf58:	e59f0ac0 	ldr	r0, [pc, #2752]	; 70ca20 <insertNewLOBeam+0x1fc>
  70bf5c:	e5c01000 	strb	r1, [r0]
  70bf60:	e59f0abc 	ldr	r0, [pc, #2748]	; 70ca24 <insertNewLOBeam+0x200>
  70bf64:	e3a01000 	mov	r1, #0
  70bf68:	e5c01000 	strb	r1, [r0]
  70bf6c:	e8bd0120 	pop	{r5, r8}
  70bf70:	e49de004 	pop	{lr}		; (ldr lr, [sp], #4)
  70bf74:	e1a0f00e 	mov	pc, lr

0070bf78 <insertNewSBeam>:
  70bf78:	e52de004 	push	{lr}		; (str lr, [sp, #-4]!)
  70bf7c:	e92d0120 	push	{r5, r8}
  70bf80:	e59f0a58 	ldr	r0, [pc, #2648]	; 70c9e0 <insertNewLOBeam+0x1bc>
  70bf84:	e5d01001 	ldrb	r1, [r0, #1]
  70bf88:	e3510001 	cmp	r1, #1
  70bf8c:	0a000a60 	beq	70e914 <quitProgram>
  70bf90:	e5d01002 	ldrb	r1, [r0, #2]
  70bf94:	e3510001 	cmp	r1, #1
  70bf98:	0a000a5d 	beq	70e914 <quitProgram>
  70bf9c:	e5d0100a 	ldrb	r1, [r0, #10]
  70bfa0:	e3510001 	cmp	r1, #1
  70bfa4:	0a000a5a 	beq	70e914 <quitProgram>
  70bfa8:	e5d0100b 	ldrb	r1, [r0, #11]
  70bfac:	e3510001 	cmp	r1, #1
  70bfb0:	0a000a57 	beq	70e914 <quitProgram>
  70bfb4:	e3a01007 	mov	r1, #7
  70bfb8:	eb000993 	bl	70e60c <xorShift>
  70bfbc:	e1a08001 	mov	r8, r1
  70bfc0:	e59f3a1c 	ldr	r3, [pc, #2588]	; 70c9e4 <insertNewLOBeam+0x1c0>
  70bfc4:	e5c38000 	strb	r8, [r3]
  70bfc8:	e59f0a18 	ldr	r0, [pc, #2584]	; 70c9e8 <insertNewLOBeam+0x1c4>
  70bfcc:	e3a01002 	mov	r1, #2
  70bfd0:	e5c01000 	strb	r1, [r0]
  70bfd4:	e59f0a10 	ldr	r0, [pc, #2576]	; 70c9ec <insertNewLOBeam+0x1c8>
  70bfd8:	e3a01001 	mov	r1, #1
  70bfdc:	e0811008 	add	r1, r1, r8
  70bfe0:	e5c01000 	strb	r1, [r0]
  70bfe4:	e59f0a04 	ldr	r0, [pc, #2564]	; 70c9f0 <insertNewLOBeam+0x1cc>
  70bfe8:	e3a01002 	mov	r1, #2
  70bfec:	e0811008 	add	r1, r1, r8
  70bff0:	e5c01000 	strb	r1, [r0]
  70bff4:	e59f09f8 	ldr	r0, [pc, #2552]	; 70c9f4 <insertNewLOBeam+0x1d0>
  70bff8:	e3a0100a 	mov	r1, #10
  70bffc:	e0811008 	add	r1, r1, r8
  70c000:	e5c01000 	strb	r1, [r0]
  70c004:	e59f09ec 	ldr	r0, [pc, #2540]	; 70c9f8 <insertNewLOBeam+0x1d4>
  70c008:	e3a0100b 	mov	r1, #11
  70c00c:	e0811008 	add	r1, r1, r8
  70c010:	e5c01000 	strb	r1, [r0]
  70c014:	e59f09e0 	ldr	r0, [pc, #2528]	; 70c9fc <insertNewLOBeam+0x1d8>
  70c018:	e3a010ff 	mov	r1, #255	; 0xff
  70c01c:	e5c01000 	strb	r1, [r0]
  70c020:	e3a01002 	mov	r1, #2
  70c024:	e0811008 	add	r1, r1, r8
  70c028:	e5c01001 	strb	r1, [r0, #1]
  70c02c:	e3a0100a 	mov	r1, #10
  70c030:	e0811008 	add	r1, r1, r8
  70c034:	e5c01002 	strb	r1, [r0, #2]
  70c038:	e3a0100b 	mov	r1, #11
  70c03c:	e0811008 	add	r1, r1, r8
  70c040:	e5c01003 	strb	r1, [r0, #3]
  70c044:	e59f09b4 	ldr	r0, [pc, #2484]	; 70ca00 <insertNewLOBeam+0x1dc>
  70c048:	e3a01001 	mov	r1, #1
  70c04c:	e0811008 	add	r1, r1, r8
  70c050:	e5c01000 	strb	r1, [r0]
  70c054:	e3a010ff 	mov	r1, #255	; 0xff
  70c058:	e5c01001 	strb	r1, [r0, #1]
  70c05c:	e3a0100a 	mov	r1, #10
  70c060:	e0811008 	add	r1, r1, r8
  70c064:	e5c01002 	strb	r1, [r0, #2]
  70c068:	e3a010ff 	mov	r1, #255	; 0xff
  70c06c:	e5c01003 	strb	r1, [r0, #3]
  70c070:	e59f098c 	ldr	r0, [pc, #2444]	; 70ca04 <insertNewLOBeam+0x1e0>
  70c074:	e3a010ff 	mov	r1, #255	; 0xff
  70c078:	e5c01000 	strb	r1, [r0]
  70c07c:	e3a01002 	mov	r1, #2
  70c080:	e0811008 	add	r1, r1, r8
  70c084:	e5c01001 	strb	r1, [r0, #1]
  70c088:	e3a010ff 	mov	r1, #255	; 0xff
  70c08c:	e5c01002 	strb	r1, [r0, #2]
  70c090:	e3a0100b 	mov	r1, #11
  70c094:	e0811008 	add	r1, r1, r8
  70c098:	e5c01003 	strb	r1, [r0, #3]
  70c09c:	e59f1944 	ldr	r1, [pc, #2372]	; 70c9e8 <insertNewLOBeam+0x1c4>
  70c0a0:	e5d11000 	ldrb	r1, [r1]
  70c0a4:	e59f2940 	ldr	r2, [pc, #2368]	; 70c9ec <insertNewLOBeam+0x1c8>
  70c0a8:	e5d22000 	ldrb	r2, [r2]
  70c0ac:	e59f092c 	ldr	r0, [pc, #2348]	; 70c9e0 <insertNewLOBeam+0x1bc>
  70c0b0:	e7c01002 	strb	r1, [r0, r2]
  70c0b4:	e59f2934 	ldr	r2, [pc, #2356]	; 70c9f0 <insertNewLOBeam+0x1cc>
  70c0b8:	e5d22000 	ldrb	r2, [r2]
  70c0bc:	e59f091c 	ldr	r0, [pc, #2332]	; 70c9e0 <insertNewLOBeam+0x1bc>
  70c0c0:	e7c01002 	strb	r1, [r0, r2]
  70c0c4:	e59f2928 	ldr	r2, [pc, #2344]	; 70c9f4 <insertNewLOBeam+0x1d0>
  70c0c8:	e5d22000 	ldrb	r2, [r2]
  70c0cc:	e59f090c 	ldr	r0, [pc, #2316]	; 70c9e0 <insertNewLOBeam+0x1bc>
  70c0d0:	e7c01002 	strb	r1, [r0, r2]
  70c0d4:	e59f291c 	ldr	r2, [pc, #2332]	; 70c9f8 <insertNewLOBeam+0x1d4>
  70c0d8:	e5d22000 	ldrb	r2, [r2]
  70c0dc:	e59f08fc 	ldr	r0, [pc, #2300]	; 70c9e0 <insertNewLOBeam+0x1bc>
  70c0e0:	e7c01002 	strb	r1, [r0, r2]
  70c0e4:	e59f393c 	ldr	r3, [pc, #2364]	; 70ca28 <insertNewLOBeam+0x204>
  70c0e8:	e59f291c 	ldr	r2, [pc, #2332]	; 70ca0c <insertNewLOBeam+0x1e8>
  70c0ec:	e5823000 	str	r3, [r2]
  70c0f0:	e59f3934 	ldr	r3, [pc, #2356]	; 70ca2c <insertNewLOBeam+0x208>
  70c0f4:	e59f2918 	ldr	r2, [pc, #2328]	; 70ca14 <insertNewLOBeam+0x1f0>
  70c0f8:	e5823000 	str	r3, [r2]
  70c0fc:	e3a03060 	mov	r3, #96	; 0x60
  70c100:	e59f2910 	ldr	r2, [pc, #2320]	; 70ca18 <insertNewLOBeam+0x1f4>
  70c104:	e5c23000 	strb	r3, [r2]
  70c108:	e3a03040 	mov	r3, #64	; 0x40
  70c10c:	e59f5908 	ldr	r5, [pc, #2312]	; 70ca1c <insertNewLOBeam+0x1f8>
  70c110:	e5c53000 	strb	r3, [r5]
  70c114:	e3a01003 	mov	r1, #3
  70c118:	e59f0900 	ldr	r0, [pc, #2304]	; 70ca20 <insertNewLOBeam+0x1fc>
  70c11c:	e5c01000 	strb	r1, [r0]
  70c120:	e59f08fc 	ldr	r0, [pc, #2300]	; 70ca24 <insertNewLOBeam+0x200>
  70c124:	e3a01000 	mov	r1, #0
  70c128:	e5c01000 	strb	r1, [r0]
  70c12c:	e8bd0120 	pop	{r5, r8}
  70c130:	e49de004 	pop	{lr}		; (ldr lr, [sp], #4)
  70c134:	e1a0f00e 	mov	pc, lr

0070c138 <insertNewSRBeam>:
  70c138:	e52de004 	push	{lr}		; (str lr, [sp, #-4]!)
  70c13c:	e92d0120 	push	{r5, r8}
  70c140:	e59f0898 	ldr	r0, [pc, #2200]	; 70c9e0 <insertNewLOBeam+0x1bc>
  70c144:	e5d01000 	ldrb	r1, [r0]
  70c148:	e3510001 	cmp	r1, #1
  70c14c:	0a0009f0 	beq	70e914 <quitProgram>
  70c150:	e5d01001 	ldrb	r1, [r0, #1]
  70c154:	e3510001 	cmp	r1, #1
  70c158:	0a0009ed 	beq	70e914 <quitProgram>
  70c15c:	e5d0100b 	ldrb	r1, [r0, #11]
  70c160:	e3510001 	cmp	r1, #1
  70c164:	0a0009ea 	beq	70e914 <quitProgram>
  70c168:	e5d0100c 	ldrb	r1, [r0, #12]
  70c16c:	e3510001 	cmp	r1, #1
  70c170:	0a0009e7 	beq	70e914 <quitProgram>
  70c174:	e3a01007 	mov	r1, #7
  70c178:	eb000923 	bl	70e60c <xorShift>
  70c17c:	e1a08001 	mov	r8, r1
  70c180:	e59f385c 	ldr	r3, [pc, #2140]	; 70c9e4 <insertNewLOBeam+0x1c0>
  70c184:	e5c38000 	strb	r8, [r3]
  70c188:	e59f085c 	ldr	r0, [pc, #2140]	; 70c9ec <insertNewLOBeam+0x1c8>
  70c18c:	e3a01000 	mov	r1, #0
  70c190:	e0811008 	add	r1, r1, r8
  70c194:	e5c01000 	strb	r1, [r0]
  70c198:	e59f0850 	ldr	r0, [pc, #2128]	; 70c9f0 <insertNewLOBeam+0x1cc>
  70c19c:	e3a01001 	mov	r1, #1
  70c1a0:	e0811008 	add	r1, r1, r8
  70c1a4:	e5c01000 	strb	r1, [r0]
  70c1a8:	e59f0844 	ldr	r0, [pc, #2116]	; 70c9f4 <insertNewLOBeam+0x1d0>
  70c1ac:	e3a0100b 	mov	r1, #11
  70c1b0:	e0811008 	add	r1, r1, r8
  70c1b4:	e5c01000 	strb	r1, [r0]
  70c1b8:	e59f0838 	ldr	r0, [pc, #2104]	; 70c9f8 <insertNewLOBeam+0x1d4>
  70c1bc:	e3a0100c 	mov	r1, #12
  70c1c0:	e0811008 	add	r1, r1, r8
  70c1c4:	e5c01000 	strb	r1, [r0]
  70c1c8:	e59f082c 	ldr	r0, [pc, #2092]	; 70c9fc <insertNewLOBeam+0x1d8>
  70c1cc:	e3a01000 	mov	r1, #0
  70c1d0:	e0811008 	add	r1, r1, r8
  70c1d4:	e5c01000 	strb	r1, [r0]
  70c1d8:	e3a010ff 	mov	r1, #255	; 0xff
  70c1dc:	e5c01001 	strb	r1, [r0, #1]
  70c1e0:	e3a0100b 	mov	r1, #11
  70c1e4:	e0811008 	add	r1, r1, r8
  70c1e8:	e5c01002 	strb	r1, [r0, #2]
  70c1ec:	e3a0100c 	mov	r1, #12
  70c1f0:	e0811008 	add	r1, r1, r8
  70c1f4:	e5c01003 	strb	r1, [r0, #3]
  70c1f8:	e59f0800 	ldr	r0, [pc, #2048]	; 70ca00 <insertNewLOBeam+0x1dc>
  70c1fc:	e3a01000 	mov	r1, #0
  70c200:	e0811008 	add	r1, r1, r8
  70c204:	e5c01000 	strb	r1, [r0]
  70c208:	e3a010ff 	mov	r1, #255	; 0xff
  70c20c:	e5c01001 	strb	r1, [r0, #1]
  70c210:	e3a0100b 	mov	r1, #11
  70c214:	e0811008 	add	r1, r1, r8
  70c218:	e5c01002 	strb	r1, [r0, #2]
  70c21c:	e3a010ff 	mov	r1, #255	; 0xff
  70c220:	e5c01003 	strb	r1, [r0, #3]
  70c224:	e59f07d8 	ldr	r0, [pc, #2008]	; 70ca04 <insertNewLOBeam+0x1e0>
  70c228:	e3a010ff 	mov	r1, #255	; 0xff
  70c22c:	e5c01000 	strb	r1, [r0]
  70c230:	e3a01001 	mov	r1, #1
  70c234:	e0811008 	add	r1, r1, r8
  70c238:	e5c01001 	strb	r1, [r0, #1]
  70c23c:	e3a010ff 	mov	r1, #255	; 0xff
  70c240:	e5c01002 	strb	r1, [r0, #2]
  70c244:	e3a0100c 	mov	r1, #12
  70c248:	e0811008 	add	r1, r1, r8
  70c24c:	e5c01003 	strb	r1, [r0, #3]
  70c250:	e3a01003 	mov	r1, #3
  70c254:	e59f2790 	ldr	r2, [pc, #1936]	; 70c9ec <insertNewLOBeam+0x1c8>
  70c258:	e5d22000 	ldrb	r2, [r2]
  70c25c:	e59f077c 	ldr	r0, [pc, #1916]	; 70c9e0 <insertNewLOBeam+0x1bc>
  70c260:	e7c01002 	strb	r1, [r0, r2]
  70c264:	e59f2784 	ldr	r2, [pc, #1924]	; 70c9f0 <insertNewLOBeam+0x1cc>
  70c268:	e5d22000 	ldrb	r2, [r2]
  70c26c:	e59f076c 	ldr	r0, [pc, #1900]	; 70c9e0 <insertNewLOBeam+0x1bc>
  70c270:	e7c01002 	strb	r1, [r0, r2]
  70c274:	e59f2778 	ldr	r2, [pc, #1912]	; 70c9f4 <insertNewLOBeam+0x1d0>
  70c278:	e5d22000 	ldrb	r2, [r2]
  70c27c:	e59f075c 	ldr	r0, [pc, #1884]	; 70c9e0 <insertNewLOBeam+0x1bc>
  70c280:	e7c01002 	strb	r1, [r0, r2]
  70c284:	e59f276c 	ldr	r2, [pc, #1900]	; 70c9f8 <insertNewLOBeam+0x1d4>
  70c288:	e5d22000 	ldrb	r2, [r2]
  70c28c:	e59f074c 	ldr	r0, [pc, #1868]	; 70c9e0 <insertNewLOBeam+0x1bc>
  70c290:	e7c01002 	strb	r1, [r0, r2]
  70c294:	e59f3794 	ldr	r3, [pc, #1940]	; 70ca30 <insertNewLOBeam+0x20c>
  70c298:	e59f276c 	ldr	r2, [pc, #1900]	; 70ca0c <insertNewLOBeam+0x1e8>
  70c29c:	e5823000 	str	r3, [r2]
  70c2a0:	e59f378c 	ldr	r3, [pc, #1932]	; 70ca34 <insertNewLOBeam+0x210>
  70c2a4:	e59f2768 	ldr	r2, [pc, #1896]	; 70ca14 <insertNewLOBeam+0x1f0>
  70c2a8:	e5823000 	str	r3, [r2]
  70c2ac:	e3a03060 	mov	r3, #96	; 0x60
  70c2b0:	e59f2760 	ldr	r2, [pc, #1888]	; 70ca18 <insertNewLOBeam+0x1f4>
  70c2b4:	e5c23000 	strb	r3, [r2]
  70c2b8:	e3a03040 	mov	r3, #64	; 0x40
  70c2bc:	e59f5758 	ldr	r5, [pc, #1880]	; 70ca1c <insertNewLOBeam+0x1f8>
  70c2c0:	e5c53000 	strb	r3, [r5]
  70c2c4:	e3a01003 	mov	r1, #3
  70c2c8:	e59f0750 	ldr	r0, [pc, #1872]	; 70ca20 <insertNewLOBeam+0x1fc>
  70c2cc:	e5c01000 	strb	r1, [r0]
  70c2d0:	e59f0710 	ldr	r0, [pc, #1808]	; 70c9e8 <insertNewLOBeam+0x1c4>
  70c2d4:	e3a01003 	mov	r1, #3
  70c2d8:	e5c01000 	strb	r1, [r0]
  70c2dc:	e59f0740 	ldr	r0, [pc, #1856]	; 70ca24 <insertNewLOBeam+0x200>
  70c2e0:	e3a01000 	mov	r1, #0
  70c2e4:	e5c01000 	strb	r1, [r0]
  70c2e8:	e8bd0120 	pop	{r5, r8}
  70c2ec:	e49de004 	pop	{lr}		; (ldr lr, [sp], #4)
  70c2f0:	e1a0f00e 	mov	pc, lr

0070c2f4 <insertNewOBeam>:
  70c2f4:	e52de004 	push	{lr}		; (str lr, [sp, #-4]!)
  70c2f8:	e92d0120 	push	{r5, r8}
  70c2fc:	e59f06dc 	ldr	r0, [pc, #1756]	; 70c9e0 <insertNewLOBeam+0x1bc>
  70c300:	e5d01000 	ldrb	r1, [r0]
  70c304:	e3510001 	cmp	r1, #1
  70c308:	0a000981 	beq	70e914 <quitProgram>
  70c30c:	e5d01001 	ldrb	r1, [r0, #1]
  70c310:	e3510001 	cmp	r1, #1
  70c314:	0a00097e 	beq	70e914 <quitProgram>
  70c318:	e5d0100a 	ldrb	r1, [r0, #10]
  70c31c:	e3510001 	cmp	r1, #1
  70c320:	0a00097b 	beq	70e914 <quitProgram>
  70c324:	e5d0100b 	ldrb	r1, [r0, #11]
  70c328:	e3510001 	cmp	r1, #1
  70c32c:	0a000978 	beq	70e914 <quitProgram>
  70c330:	e3a01008 	mov	r1, #8
  70c334:	eb0008b4 	bl	70e60c <xorShift>
  70c338:	e1a08001 	mov	r8, r1
  70c33c:	e59f36a0 	ldr	r3, [pc, #1696]	; 70c9e4 <insertNewLOBeam+0x1c0>
  70c340:	e5c38000 	strb	r8, [r3]
  70c344:	e59f06a0 	ldr	r0, [pc, #1696]	; 70c9ec <insertNewLOBeam+0x1c8>
  70c348:	e3a01000 	mov	r1, #0
  70c34c:	e0811008 	add	r1, r1, r8
  70c350:	e5c01000 	strb	r1, [r0]
  70c354:	e59f0694 	ldr	r0, [pc, #1684]	; 70c9f0 <insertNewLOBeam+0x1cc>
  70c358:	e3a01001 	mov	r1, #1
  70c35c:	e0811008 	add	r1, r1, r8
  70c360:	e5c01000 	strb	r1, [r0]
  70c364:	e59f0688 	ldr	r0, [pc, #1672]	; 70c9f4 <insertNewLOBeam+0x1d0>
  70c368:	e3a0100a 	mov	r1, #10
  70c36c:	e0811008 	add	r1, r1, r8
  70c370:	e5c01000 	strb	r1, [r0]
  70c374:	e59f067c 	ldr	r0, [pc, #1660]	; 70c9f8 <insertNewLOBeam+0x1d4>
  70c378:	e3a0100b 	mov	r1, #11
  70c37c:	e0811008 	add	r1, r1, r8
  70c380:	e5c01000 	strb	r1, [r0]
  70c384:	e59f0670 	ldr	r0, [pc, #1648]	; 70c9fc <insertNewLOBeam+0x1d8>
  70c388:	e3a010ff 	mov	r1, #255	; 0xff
  70c38c:	e5c01000 	strb	r1, [r0]
  70c390:	e3a010ff 	mov	r1, #255	; 0xff
  70c394:	e5c01001 	strb	r1, [r0, #1]
  70c398:	e3a0100a 	mov	r1, #10
  70c39c:	e0811008 	add	r1, r1, r8
  70c3a0:	e5c01002 	strb	r1, [r0, #2]
  70c3a4:	e3a0100b 	mov	r1, #11
  70c3a8:	e0811008 	add	r1, r1, r8
  70c3ac:	e5c01003 	strb	r1, [r0, #3]
  70c3b0:	e59f0648 	ldr	r0, [pc, #1608]	; 70ca00 <insertNewLOBeam+0x1dc>
  70c3b4:	e3a01000 	mov	r1, #0
  70c3b8:	e0811008 	add	r1, r1, r8
  70c3bc:	e5c01000 	strb	r1, [r0]
  70c3c0:	e3a010ff 	mov	r1, #255	; 0xff
  70c3c4:	e5c01001 	strb	r1, [r0, #1]
  70c3c8:	e3a0100a 	mov	r1, #10
  70c3cc:	e0811008 	add	r1, r1, r8
  70c3d0:	e5c01002 	strb	r1, [r0, #2]
  70c3d4:	e3a010ff 	mov	r1, #255	; 0xff
  70c3d8:	e5c01003 	strb	r1, [r0, #3]
  70c3dc:	e59f0620 	ldr	r0, [pc, #1568]	; 70ca04 <insertNewLOBeam+0x1e0>
  70c3e0:	e3a010ff 	mov	r1, #255	; 0xff
  70c3e4:	e5c01000 	strb	r1, [r0]
  70c3e8:	e3a01001 	mov	r1, #1
  70c3ec:	e0811008 	add	r1, r1, r8
  70c3f0:	e5c01001 	strb	r1, [r0, #1]
  70c3f4:	e3a010ff 	mov	r1, #255	; 0xff
  70c3f8:	e5c01002 	strb	r1, [r0, #2]
  70c3fc:	e3a0100b 	mov	r1, #11
  70c400:	e0811008 	add	r1, r1, r8
  70c404:	e5c01003 	strb	r1, [r0, #3]
  70c408:	e3a01004 	mov	r1, #4
  70c40c:	e59f25d8 	ldr	r2, [pc, #1496]	; 70c9ec <insertNewLOBeam+0x1c8>
  70c410:	e5d22000 	ldrb	r2, [r2]
  70c414:	e59f05c4 	ldr	r0, [pc, #1476]	; 70c9e0 <insertNewLOBeam+0x1bc>
  70c418:	e7c01002 	strb	r1, [r0, r2]
  70c41c:	e59f25cc 	ldr	r2, [pc, #1484]	; 70c9f0 <insertNewLOBeam+0x1cc>
  70c420:	e5d22000 	ldrb	r2, [r2]
  70c424:	e59f05b4 	ldr	r0, [pc, #1460]	; 70c9e0 <insertNewLOBeam+0x1bc>
  70c428:	e7c01002 	strb	r1, [r0, r2]
  70c42c:	e59f25c0 	ldr	r2, [pc, #1472]	; 70c9f4 <insertNewLOBeam+0x1d0>
  70c430:	e5d22000 	ldrb	r2, [r2]
  70c434:	e59f05a4 	ldr	r0, [pc, #1444]	; 70c9e0 <insertNewLOBeam+0x1bc>
  70c438:	e7c01002 	strb	r1, [r0, r2]
  70c43c:	e59f25b4 	ldr	r2, [pc, #1460]	; 70c9f8 <insertNewLOBeam+0x1d4>
  70c440:	e5d22000 	ldrb	r2, [r2]
  70c444:	e59f0594 	ldr	r0, [pc, #1428]	; 70c9e0 <insertNewLOBeam+0x1bc>
  70c448:	e7c01002 	strb	r1, [r0, r2]
  70c44c:	e59f35e4 	ldr	r3, [pc, #1508]	; 70ca38 <insertNewLOBeam+0x214>
  70c450:	e59f25b4 	ldr	r2, [pc, #1460]	; 70ca0c <insertNewLOBeam+0x1e8>
  70c454:	e5823000 	str	r3, [r2]
  70c458:	e59f35dc 	ldr	r3, [pc, #1500]	; 70ca3c <insertNewLOBeam+0x218>
  70c45c:	e59f25b0 	ldr	r2, [pc, #1456]	; 70ca14 <insertNewLOBeam+0x1f0>
  70c460:	e5823000 	str	r3, [r2]
  70c464:	e3a03040 	mov	r3, #64	; 0x40
  70c468:	e59f25a8 	ldr	r2, [pc, #1448]	; 70ca18 <insertNewLOBeam+0x1f4>
  70c46c:	e5c23000 	strb	r3, [r2]
  70c470:	e3a03040 	mov	r3, #64	; 0x40
  70c474:	e59f55a0 	ldr	r5, [pc, #1440]	; 70ca1c <insertNewLOBeam+0x1f8>
  70c478:	e5c53000 	strb	r3, [r5]
  70c47c:	e3a01002 	mov	r1, #2
  70c480:	e59f0598 	ldr	r0, [pc, #1432]	; 70ca20 <insertNewLOBeam+0x1fc>
  70c484:	e5c01000 	strb	r1, [r0]
  70c488:	e59f0558 	ldr	r0, [pc, #1368]	; 70c9e8 <insertNewLOBeam+0x1c4>
  70c48c:	e3a01004 	mov	r1, #4
  70c490:	e5c01000 	strb	r1, [r0]
  70c494:	e59f0588 	ldr	r0, [pc, #1416]	; 70ca24 <insertNewLOBeam+0x200>
  70c498:	e3a01000 	mov	r1, #0
  70c49c:	e5c01000 	strb	r1, [r0]
  70c4a0:	e8bd0120 	pop	{r5, r8}
  70c4a4:	e49de004 	pop	{lr}		; (ldr lr, [sp], #4)
  70c4a8:	e1a0f00e 	mov	pc, lr

0070c4ac <insertNewWBeam>:
  70c4ac:	e52de004 	push	{lr}		; (str lr, [sp, #-4]!)
  70c4b0:	e92d0120 	push	{r5, r8}
  70c4b4:	e59f0524 	ldr	r0, [pc, #1316]	; 70c9e0 <insertNewLOBeam+0x1bc>
  70c4b8:	e5d01001 	ldrb	r1, [r0, #1]
  70c4bc:	e3510001 	cmp	r1, #1
  70c4c0:	0a000913 	beq	70e914 <quitProgram>
  70c4c4:	e5d0100a 	ldrb	r1, [r0, #10]
  70c4c8:	e3510001 	cmp	r1, #1
  70c4cc:	0a000910 	beq	70e914 <quitProgram>
  70c4d0:	e5d0100b 	ldrb	r1, [r0, #11]
  70c4d4:	e3510001 	cmp	r1, #1
  70c4d8:	0a00090d 	beq	70e914 <quitProgram>
  70c4dc:	e5d0100c 	ldrb	r1, [r0, #12]
  70c4e0:	e3510001 	cmp	r1, #1
  70c4e4:	0a00090a 	beq	70e914 <quitProgram>
  70c4e8:	e3a01007 	mov	r1, #7
  70c4ec:	eb000846 	bl	70e60c <xorShift>
  70c4f0:	e1a08001 	mov	r8, r1
  70c4f4:	e59f34e8 	ldr	r3, [pc, #1256]	; 70c9e4 <insertNewLOBeam+0x1c0>
  70c4f8:	e5c38000 	strb	r8, [r3]
  70c4fc:	e59f04e8 	ldr	r0, [pc, #1256]	; 70c9ec <insertNewLOBeam+0x1c8>
  70c500:	e3a01001 	mov	r1, #1
  70c504:	e0811008 	add	r1, r1, r8
  70c508:	e5c01000 	strb	r1, [r0]
  70c50c:	e59f04dc 	ldr	r0, [pc, #1244]	; 70c9f0 <insertNewLOBeam+0x1cc>
  70c510:	e3a0100a 	mov	r1, #10
  70c514:	e0811008 	add	r1, r1, r8
  70c518:	e5c01000 	strb	r1, [r0]
  70c51c:	e59f04d0 	ldr	r0, [pc, #1232]	; 70c9f4 <insertNewLOBeam+0x1d0>
  70c520:	e3a0100b 	mov	r1, #11
  70c524:	e0811008 	add	r1, r1, r8
  70c528:	e5c01000 	strb	r1, [r0]
  70c52c:	e59f04c4 	ldr	r0, [pc, #1220]	; 70c9f8 <insertNewLOBeam+0x1d4>
  70c530:	e3a0100c 	mov	r1, #12
  70c534:	e0811008 	add	r1, r1, r8
  70c538:	e5c01000 	strb	r1, [r0]
  70c53c:	e59f04b8 	ldr	r0, [pc, #1208]	; 70c9fc <insertNewLOBeam+0x1d8>
  70c540:	e3a010ff 	mov	r1, #255	; 0xff
  70c544:	e5c01000 	strb	r1, [r0]
  70c548:	e3a0100a 	mov	r1, #10
  70c54c:	e0811008 	add	r1, r1, r8
  70c550:	e5c01001 	strb	r1, [r0, #1]
  70c554:	e3a0100b 	mov	r1, #11
  70c558:	e0811008 	add	r1, r1, r8
  70c55c:	e5c01002 	strb	r1, [r0, #2]
  70c560:	e3a0100c 	mov	r1, #12
  70c564:	e0811008 	add	r1, r1, r8
  70c568:	e5c01003 	strb	r1, [r0, #3]
  70c56c:	e59f048c 	ldr	r0, [pc, #1164]	; 70ca00 <insertNewLOBeam+0x1dc>
  70c570:	e3a01000 	mov	r1, #0
  70c574:	e0811008 	add	r1, r1, r8
  70c578:	e5c01000 	strb	r1, [r0]
  70c57c:	e3a010ff 	mov	r1, #255	; 0xff
  70c580:	e5c01001 	strb	r1, [r0, #1]
  70c584:	e3a0100a 	mov	r1, #10
  70c588:	e0811008 	add	r1, r1, r8
  70c58c:	e5c01002 	strb	r1, [r0, #2]
  70c590:	e3a010ff 	mov	r1, #255	; 0xff
  70c594:	e5c01003 	strb	r1, [r0, #3]
  70c598:	e59f0464 	ldr	r0, [pc, #1124]	; 70ca04 <insertNewLOBeam+0x1e0>
  70c59c:	e3a010ff 	mov	r1, #255	; 0xff
  70c5a0:	e5c01000 	strb	r1, [r0]
  70c5a4:	e3a01001 	mov	r1, #1
  70c5a8:	e0811008 	add	r1, r1, r8
  70c5ac:	e5c01001 	strb	r1, [r0, #1]
  70c5b0:	e3a010ff 	mov	r1, #255	; 0xff
  70c5b4:	e5c01002 	strb	r1, [r0, #2]
  70c5b8:	e3a0100c 	mov	r1, #12
  70c5bc:	e0811008 	add	r1, r1, r8
  70c5c0:	e5c01003 	strb	r1, [r0, #3]
  70c5c4:	e3a01005 	mov	r1, #5
  70c5c8:	e59f241c 	ldr	r2, [pc, #1052]	; 70c9ec <insertNewLOBeam+0x1c8>
  70c5cc:	e5d22000 	ldrb	r2, [r2]
  70c5d0:	e59f0408 	ldr	r0, [pc, #1032]	; 70c9e0 <insertNewLOBeam+0x1bc>
  70c5d4:	e7c01002 	strb	r1, [r0, r2]
  70c5d8:	e59f2410 	ldr	r2, [pc, #1040]	; 70c9f0 <insertNewLOBeam+0x1cc>
  70c5dc:	e5d22000 	ldrb	r2, [r2]
  70c5e0:	e59f03f8 	ldr	r0, [pc, #1016]	; 70c9e0 <insertNewLOBeam+0x1bc>
  70c5e4:	e7c01002 	strb	r1, [r0, r2]
  70c5e8:	e59f2404 	ldr	r2, [pc, #1028]	; 70c9f4 <insertNewLOBeam+0x1d0>
  70c5ec:	e5d22000 	ldrb	r2, [r2]
  70c5f0:	e59f03e8 	ldr	r0, [pc, #1000]	; 70c9e0 <insertNewLOBeam+0x1bc>
  70c5f4:	e7c01002 	strb	r1, [r0, r2]
  70c5f8:	e59f23f8 	ldr	r2, [pc, #1016]	; 70c9f8 <insertNewLOBeam+0x1d4>
  70c5fc:	e5d22000 	ldrb	r2, [r2]
  70c600:	e59f03d8 	ldr	r0, [pc, #984]	; 70c9e0 <insertNewLOBeam+0x1bc>
  70c604:	e7c01002 	strb	r1, [r0, r2]
  70c608:	e59f3430 	ldr	r3, [pc, #1072]	; 70ca40 <insertNewLOBeam+0x21c>
  70c60c:	e59f23f8 	ldr	r2, [pc, #1016]	; 70ca0c <insertNewLOBeam+0x1e8>
  70c610:	e5823000 	str	r3, [r2]
  70c614:	e59f3428 	ldr	r3, [pc, #1064]	; 70ca44 <insertNewLOBeam+0x220>
  70c618:	e59f23f4 	ldr	r2, [pc, #1012]	; 70ca14 <insertNewLOBeam+0x1f0>
  70c61c:	e5823000 	str	r3, [r2]
  70c620:	e3a03060 	mov	r3, #96	; 0x60
  70c624:	e59f23ec 	ldr	r2, [pc, #1004]	; 70ca18 <insertNewLOBeam+0x1f4>
  70c628:	e5c23000 	strb	r3, [r2]
  70c62c:	e3a03040 	mov	r3, #64	; 0x40
  70c630:	e59f53e4 	ldr	r5, [pc, #996]	; 70ca1c <insertNewLOBeam+0x1f8>
  70c634:	e5c53000 	strb	r3, [r5]
  70c638:	e3a01003 	mov	r1, #3
  70c63c:	e59f03dc 	ldr	r0, [pc, #988]	; 70ca20 <insertNewLOBeam+0x1fc>
  70c640:	e5c01000 	strb	r1, [r0]
  70c644:	e59f039c 	ldr	r0, [pc, #924]	; 70c9e8 <insertNewLOBeam+0x1c4>
  70c648:	e3a01005 	mov	r1, #5
  70c64c:	e5c01000 	strb	r1, [r0]
  70c650:	e59f03cc 	ldr	r0, [pc, #972]	; 70ca24 <insertNewLOBeam+0x200>
  70c654:	e3a01000 	mov	r1, #0
  70c658:	e5c01000 	strb	r1, [r0]
  70c65c:	e8bd0120 	pop	{r5, r8}
  70c660:	e49de004 	pop	{lr}		; (ldr lr, [sp], #4)
  70c664:	e1a0f00e 	mov	pc, lr

0070c668 <insertNewLBBeam>:
  70c668:	e52de004 	push	{lr}		; (str lr, [sp, #-4]!)
  70c66c:	e92d0120 	push	{r5, r8}
  70c670:	e59f0368 	ldr	r0, [pc, #872]	; 70c9e0 <insertNewLOBeam+0x1bc>
  70c674:	e5d01000 	ldrb	r1, [r0]
  70c678:	e3510001 	cmp	r1, #1
  70c67c:	0a0008a4 	beq	70e914 <quitProgram>
  70c680:	e5d0100a 	ldrb	r1, [r0, #10]
  70c684:	e3510001 	cmp	r1, #1
  70c688:	0a0008a1 	beq	70e914 <quitProgram>
  70c68c:	e5d0100b 	ldrb	r1, [r0, #11]
  70c690:	e3510001 	cmp	r1, #1
  70c694:	0a00089e 	beq	70e914 <quitProgram>
  70c698:	e5d0100c 	ldrb	r1, [r0, #12]
  70c69c:	e3510001 	cmp	r1, #1
  70c6a0:	0a00089b 	beq	70e914 <quitProgram>
  70c6a4:	e3a01007 	mov	r1, #7
  70c6a8:	eb0007d7 	bl	70e60c <xorShift>
  70c6ac:	e1a08001 	mov	r8, r1
  70c6b0:	e59f332c 	ldr	r3, [pc, #812]	; 70c9e4 <insertNewLOBeam+0x1c0>
  70c6b4:	e5c38000 	strb	r8, [r3]
  70c6b8:	e59f032c 	ldr	r0, [pc, #812]	; 70c9ec <insertNewLOBeam+0x1c8>
  70c6bc:	e3a01000 	mov	r1, #0
  70c6c0:	e0811008 	add	r1, r1, r8
  70c6c4:	e5c01000 	strb	r1, [r0]
  70c6c8:	e59f0320 	ldr	r0, [pc, #800]	; 70c9f0 <insertNewLOBeam+0x1cc>
  70c6cc:	e3a0100a 	mov	r1, #10
  70c6d0:	e0811008 	add	r1, r1, r8
  70c6d4:	e5c01000 	strb	r1, [r0]
  70c6d8:	e59f0314 	ldr	r0, [pc, #788]	; 70c9f4 <insertNewLOBeam+0x1d0>
  70c6dc:	e3a0100b 	mov	r1, #11
  70c6e0:	e0811008 	add	r1, r1, r8
  70c6e4:	e5c01000 	strb	r1, [r0]
  70c6e8:	e59f0308 	ldr	r0, [pc, #776]	; 70c9f8 <insertNewLOBeam+0x1d4>
  70c6ec:	e3a0100c 	mov	r1, #12
  70c6f0:	e0811008 	add	r1, r1, r8
  70c6f4:	e5c01000 	strb	r1, [r0]
  70c6f8:	e59f02fc 	ldr	r0, [pc, #764]	; 70c9fc <insertNewLOBeam+0x1d8>
  70c6fc:	e3a010ff 	mov	r1, #255	; 0xff
  70c700:	e5c01000 	strb	r1, [r0]
  70c704:	e3a0100a 	mov	r1, #10
  70c708:	e0811008 	add	r1, r1, r8
  70c70c:	e5c01001 	strb	r1, [r0, #1]
  70c710:	e3a0100b 	mov	r1, #11
  70c714:	e0811008 	add	r1, r1, r8
  70c718:	e5c01002 	strb	r1, [r0, #2]
  70c71c:	e3a0100c 	mov	r1, #12
  70c720:	e0811008 	add	r1, r1, r8
  70c724:	e5c01003 	strb	r1, [r0, #3]
  70c728:	e59f02d0 	ldr	r0, [pc, #720]	; 70ca00 <insertNewLOBeam+0x1dc>
  70c72c:	e3a01000 	mov	r1, #0
  70c730:	e0811008 	add	r1, r1, r8
  70c734:	e5c01000 	strb	r1, [r0]
  70c738:	e3a0100a 	mov	r1, #10
  70c73c:	e0811008 	add	r1, r1, r8
  70c740:	e5c01001 	strb	r1, [r0, #1]
  70c744:	e3a010ff 	mov	r1, #255	; 0xff
  70c748:	e5c01002 	strb	r1, [r0, #2]
  70c74c:	e3a010ff 	mov	r1, #255	; 0xff
  70c750:	e5c01003 	strb	r1, [r0, #3]
  70c754:	e59f02a8 	ldr	r0, [pc, #680]	; 70ca04 <insertNewLOBeam+0x1e0>
  70c758:	e3a01000 	mov	r1, #0
  70c75c:	e0811008 	add	r1, r1, r8
  70c760:	e5c01000 	strb	r1, [r0]
  70c764:	e3a010ff 	mov	r1, #255	; 0xff
  70c768:	e5c01001 	strb	r1, [r0, #1]
  70c76c:	e3a010ff 	mov	r1, #255	; 0xff
  70c770:	e5c01002 	strb	r1, [r0, #2]
  70c774:	e3a0100c 	mov	r1, #12
  70c778:	e0811008 	add	r1, r1, r8
  70c77c:	e5c01003 	strb	r1, [r0, #3]
  70c780:	e3a01006 	mov	r1, #6
  70c784:	e59f2260 	ldr	r2, [pc, #608]	; 70c9ec <insertNewLOBeam+0x1c8>
  70c788:	e5d22000 	ldrb	r2, [r2]
  70c78c:	e59f024c 	ldr	r0, [pc, #588]	; 70c9e0 <insertNewLOBeam+0x1bc>
  70c790:	e7c01002 	strb	r1, [r0, r2]
  70c794:	e59f2254 	ldr	r2, [pc, #596]	; 70c9f0 <insertNewLOBeam+0x1cc>
  70c798:	e5d22000 	ldrb	r2, [r2]
  70c79c:	e59f023c 	ldr	r0, [pc, #572]	; 70c9e0 <insertNewLOBeam+0x1bc>
  70c7a0:	e7c01002 	strb	r1, [r0, r2]
  70c7a4:	e59f2248 	ldr	r2, [pc, #584]	; 70c9f4 <insertNewLOBeam+0x1d0>
  70c7a8:	e5d22000 	ldrb	r2, [r2]
  70c7ac:	e59f022c 	ldr	r0, [pc, #556]	; 70c9e0 <insertNewLOBeam+0x1bc>
  70c7b0:	e7c01002 	strb	r1, [r0, r2]
  70c7b4:	e59f223c 	ldr	r2, [pc, #572]	; 70c9f8 <insertNewLOBeam+0x1d4>
  70c7b8:	e5d22000 	ldrb	r2, [r2]
  70c7bc:	e59f021c 	ldr	r0, [pc, #540]	; 70c9e0 <insertNewLOBeam+0x1bc>
  70c7c0:	e7c01002 	strb	r1, [r0, r2]
  70c7c4:	e59f327c 	ldr	r3, [pc, #636]	; 70ca48 <insertNewLOBeam+0x224>
  70c7c8:	e59f223c 	ldr	r2, [pc, #572]	; 70ca0c <insertNewLOBeam+0x1e8>
  70c7cc:	e5823000 	str	r3, [r2]
  70c7d0:	e59f3274 	ldr	r3, [pc, #628]	; 70ca4c <insertNewLOBeam+0x228>
  70c7d4:	e59f2238 	ldr	r2, [pc, #568]	; 70ca14 <insertNewLOBeam+0x1f0>
  70c7d8:	e5823000 	str	r3, [r2]
  70c7dc:	e3a03060 	mov	r3, #96	; 0x60
  70c7e0:	e59f2230 	ldr	r2, [pc, #560]	; 70ca18 <insertNewLOBeam+0x1f4>
  70c7e4:	e5c23000 	strb	r3, [r2]
  70c7e8:	e3a03040 	mov	r3, #64	; 0x40
  70c7ec:	e59f5228 	ldr	r5, [pc, #552]	; 70ca1c <insertNewLOBeam+0x1f8>
  70c7f0:	e5c53000 	strb	r3, [r5]
  70c7f4:	e3a01003 	mov	r1, #3
  70c7f8:	e59f0220 	ldr	r0, [pc, #544]	; 70ca20 <insertNewLOBeam+0x1fc>
  70c7fc:	e5c01000 	strb	r1, [r0]
  70c800:	e59f01e0 	ldr	r0, [pc, #480]	; 70c9e8 <insertNewLOBeam+0x1c4>
  70c804:	e3a01006 	mov	r1, #6
  70c808:	e5c01000 	strb	r1, [r0]
  70c80c:	e59f0210 	ldr	r0, [pc, #528]	; 70ca24 <insertNewLOBeam+0x200>
  70c810:	e3a01000 	mov	r1, #0
  70c814:	e5c01000 	strb	r1, [r0]
  70c818:	e8bd0120 	pop	{r5, r8}
  70c81c:	e49de004 	pop	{lr}		; (ldr lr, [sp], #4)
  70c820:	e1a0f00e 	mov	pc, lr

0070c824 <insertNewLOBeam>:
  70c824:	e52de004 	push	{lr}		; (str lr, [sp, #-4]!)
  70c828:	e92d0120 	push	{r5, r8}
  70c82c:	e59f01ac 	ldr	r0, [pc, #428]	; 70c9e0 <insertNewLOBeam+0x1bc>
  70c830:	e5d01002 	ldrb	r1, [r0, #2]
  70c834:	e3510001 	cmp	r1, #1
  70c838:	0a000835 	beq	70e914 <quitProgram>
  70c83c:	e5d0100a 	ldrb	r1, [r0, #10]
  70c840:	e3510001 	cmp	r1, #1
  70c844:	0a000832 	beq	70e914 <quitProgram>
  70c848:	e5d0100b 	ldrb	r1, [r0, #11]
  70c84c:	e3510001 	cmp	r1, #1
  70c850:	0a00082f 	beq	70e914 <quitProgram>
  70c854:	e5d0100c 	ldrb	r1, [r0, #12]
  70c858:	e3510001 	cmp	r1, #1
  70c85c:	0a00082c 	beq	70e914 <quitProgram>
  70c860:	e3a01007 	mov	r1, #7
  70c864:	eb000768 	bl	70e60c <xorShift>
  70c868:	e1a08001 	mov	r8, r1
  70c86c:	e59f3170 	ldr	r3, [pc, #368]	; 70c9e4 <insertNewLOBeam+0x1c0>
  70c870:	e5c38000 	strb	r8, [r3]
  70c874:	e59f0170 	ldr	r0, [pc, #368]	; 70c9ec <insertNewLOBeam+0x1c8>
  70c878:	e3a01002 	mov	r1, #2
  70c87c:	e0811008 	add	r1, r1, r8
  70c880:	e5c01000 	strb	r1, [r0]
  70c884:	e59f0164 	ldr	r0, [pc, #356]	; 70c9f0 <insertNewLOBeam+0x1cc>
  70c888:	e3a0100a 	mov	r1, #10
  70c88c:	e0811008 	add	r1, r1, r8
  70c890:	e5c01000 	strb	r1, [r0]
  70c894:	e59f0158 	ldr	r0, [pc, #344]	; 70c9f4 <insertNewLOBeam+0x1d0>
  70c898:	e3a0100b 	mov	r1, #11
  70c89c:	e0811008 	add	r1, r1, r8
  70c8a0:	e5c01000 	strb	r1, [r0]
  70c8a4:	e59f014c 	ldr	r0, [pc, #332]	; 70c9f8 <insertNewLOBeam+0x1d4>
  70c8a8:	e3a0100c 	mov	r1, #12
  70c8ac:	e0811008 	add	r1, r1, r8
  70c8b0:	e5c01000 	strb	r1, [r0]
  70c8b4:	e59f0140 	ldr	r0, [pc, #320]	; 70c9fc <insertNewLOBeam+0x1d8>
  70c8b8:	e3a010ff 	mov	r1, #255	; 0xff
  70c8bc:	e5c01000 	strb	r1, [r0]
  70c8c0:	e3a0100a 	mov	r1, #10
  70c8c4:	e0811008 	add	r1, r1, r8
  70c8c8:	e5c01001 	strb	r1, [r0, #1]
  70c8cc:	e3a0100b 	mov	r1, #11
  70c8d0:	e0811008 	add	r1, r1, r8
  70c8d4:	e5c01002 	strb	r1, [r0, #2]
  70c8d8:	e3a0100c 	mov	r1, #12
  70c8dc:	e0811008 	add	r1, r1, r8
  70c8e0:	e5c01003 	strb	r1, [r0, #3]
  70c8e4:	e59f0114 	ldr	r0, [pc, #276]	; 70ca00 <insertNewLOBeam+0x1dc>
  70c8e8:	e3a01002 	mov	r1, #2
  70c8ec:	e0811008 	add	r1, r1, r8
  70c8f0:	e5c01000 	strb	r1, [r0]
  70c8f4:	e3a0100a 	mov	r1, #10
  70c8f8:	e0811008 	add	r1, r1, r8
  70c8fc:	e5c01001 	strb	r1, [r0, #1]
  70c900:	e3a010ff 	mov	r1, #255	; 0xff
  70c904:	e5c01002 	strb	r1, [r0, #2]
  70c908:	e3a010ff 	mov	r1, #255	; 0xff
  70c90c:	e5c01003 	strb	r1, [r0, #3]
  70c910:	e59f00ec 	ldr	r0, [pc, #236]	; 70ca04 <insertNewLOBeam+0x1e0>
  70c914:	e3a01002 	mov	r1, #2
  70c918:	e0811008 	add	r1, r1, r8
  70c91c:	e5c01000 	strb	r1, [r0]
  70c920:	e3a010ff 	mov	r1, #255	; 0xff
  70c924:	e5c01001 	strb	r1, [r0, #1]
  70c928:	e3a010ff 	mov	r1, #255	; 0xff
  70c92c:	e5c01002 	strb	r1, [r0, #2]
  70c930:	e3a0100c 	mov	r1, #12
  70c934:	e0811008 	add	r1, r1, r8
  70c938:	e5c01003 	strb	r1, [r0, #3]
  70c93c:	e3a01007 	mov	r1, #7
  70c940:	e59f20a4 	ldr	r2, [pc, #164]	; 70c9ec <insertNewLOBeam+0x1c8>
  70c944:	e5d22000 	ldrb	r2, [r2]
  70c948:	e59f0090 	ldr	r0, [pc, #144]	; 70c9e0 <insertNewLOBeam+0x1bc>
  70c94c:	e7c01002 	strb	r1, [r0, r2]
  70c950:	e59f2098 	ldr	r2, [pc, #152]	; 70c9f0 <insertNewLOBeam+0x1cc>
  70c954:	e5d22000 	ldrb	r2, [r2]
  70c958:	e59f0080 	ldr	r0, [pc, #128]	; 70c9e0 <insertNewLOBeam+0x1bc>
  70c95c:	e7c01002 	strb	r1, [r0, r2]
  70c960:	e59f208c 	ldr	r2, [pc, #140]	; 70c9f4 <insertNewLOBeam+0x1d0>
  70c964:	e5d22000 	ldrb	r2, [r2]
  70c968:	e59f0070 	ldr	r0, [pc, #112]	; 70c9e0 <insertNewLOBeam+0x1bc>
  70c96c:	e7c01002 	strb	r1, [r0, r2]
  70c970:	e59f2080 	ldr	r2, [pc, #128]	; 70c9f8 <insertNewLOBeam+0x1d4>
  70c974:	e5d22000 	ldrb	r2, [r2]
  70c978:	e59f0060 	ldr	r0, [pc, #96]	; 70c9e0 <insertNewLOBeam+0x1bc>
  70c97c:	e7c01002 	strb	r1, [r0, r2]
  70c980:	e59f30c8 	ldr	r3, [pc, #200]	; 70ca50 <insertNewLOBeam+0x22c>
  70c984:	e59f2080 	ldr	r2, [pc, #128]	; 70ca0c <insertNewLOBeam+0x1e8>
  70c988:	e5823000 	str	r3, [r2]
  70c98c:	e59f30c0 	ldr	r3, [pc, #192]	; 70ca54 <insertNewLOBeam+0x230>
  70c990:	e59f207c 	ldr	r2, [pc, #124]	; 70ca14 <insertNewLOBeam+0x1f0>
  70c994:	e5823000 	str	r3, [r2]
  70c998:	e3a03060 	mov	r3, #96	; 0x60
  70c99c:	e59f2074 	ldr	r2, [pc, #116]	; 70ca18 <insertNewLOBeam+0x1f4>
  70c9a0:	e5c23000 	strb	r3, [r2]
  70c9a4:	e3a03040 	mov	r3, #64	; 0x40
  70c9a8:	e59f506c 	ldr	r5, [pc, #108]	; 70ca1c <insertNewLOBeam+0x1f8>
  70c9ac:	e5c53000 	strb	r3, [r5]
  70c9b0:	e3a01003 	mov	r1, #3
  70c9b4:	e59f0064 	ldr	r0, [pc, #100]	; 70ca20 <insertNewLOBeam+0x1fc>
  70c9b8:	e5c01000 	strb	r1, [r0]
  70c9bc:	e59f0024 	ldr	r0, [pc, #36]	; 70c9e8 <insertNewLOBeam+0x1c4>
  70c9c0:	e3a01007 	mov	r1, #7
  70c9c4:	e5c01000 	strb	r1, [r0]
  70c9c8:	e59f0054 	ldr	r0, [pc, #84]	; 70ca24 <insertNewLOBeam+0x200>
  70c9cc:	e3a01000 	mov	r1, #0
  70c9d0:	e5c01000 	strb	r1, [r0]
  70c9d4:	e8bd0120 	pop	{r5, r8}
  70c9d8:	e49de004 	pop	{lr}		; (ldr lr, [sp], #4)
  70c9dc:	e1a0f00e 	mov	pc, lr
  70c9e0:	006c4e98 	.word	0x006c4e98
  70c9e4:	006c4f7a 	.word	0x006c4f7a
  70c9e8:	006c4f7c 	.word	0x006c4f7c
  70c9ec:	006c4f60 	.word	0x006c4f60
  70c9f0:	006c4f61 	.word	0x006c4f61
  70c9f4:	006c4f62 	.word	0x006c4f62
  70c9f8:	006c4f63 	.word	0x006c4f63
  70c9fc:	006c4f64 	.word	0x006c4f64
  70ca00:	006c4f68 	.word	0x006c4f68
  70ca04:	006c4f6c 	.word	0x006c4f6c
  70ca08:	00658e98 	.word	0x00658e98
  70ca0c:	006c4f70 	.word	0x006c4f70
  70ca10:	0065ae98 	.word	0x0065ae98
  70ca14:	006c4f74 	.word	0x006c4f74
  70ca18:	006c4f78 	.word	0x006c4f78
  70ca1c:	006c4f79 	.word	0x006c4f79
  70ca20:	006c4f7b 	.word	0x006c4f7b
  70ca24:	006c4f7d 	.word	0x006c4f7d
  70ca28:	00660e98 	.word	0x00660e98
  70ca2c:	00663e98 	.word	0x00663e98
  70ca30:	0066ce98 	.word	0x0066ce98
  70ca34:	0066fe98 	.word	0x0066fe98
  70ca38:	00678e98 	.word	0x00678e98
  70ca3c:	0067ae98 	.word	0x0067ae98
  70ca40:	0067ce98 	.word	0x0067ce98
  70ca44:	0067fe98 	.word	0x0067fe98
  70ca48:	00694e98 	.word	0x00694e98
  70ca4c:	00697e98 	.word	0x00697e98
  70ca50:	006ace98 	.word	0x006ace98
  70ca54:	006afe98 	.word	0x006afe98

0070ca58 <rotate6_AB>:
  70ca58:	e52de004 	push	{lr}		; (str lr, [sp, #-4]!)
  70ca5c:	e59f09cc 	ldr	r0, [pc, #2508]	; 70d430 <noMove_DA+0x8>
  70ca60:	e59f29cc 	ldr	r2, [pc, #2508]	; 70d434 <noMove_DA+0xc>
  70ca64:	e5d22000 	ldrb	r2, [r2]
  70ca68:	e1a01002 	mov	r1, r2
  70ca6c:	e2422001 	sub	r2, r2, #1
  70ca70:	ebfff93d 	bl	70af6c <checkIfDifferentLine>
  70ca74:	e3530000 	cmp	r3, #0
  70ca78:	1a000094 	bne	70ccd0 <noMove_AB>
  70ca7c:	e35200c7 	cmp	r2, #199	; 0xc7
  70ca80:	ca000092 	bgt	70ccd0 <noMove_AB>
  70ca84:	e3520000 	cmp	r2, #0
  70ca88:	ba000090 	blt	70ccd0 <noMove_AB>
  70ca8c:	e7d01002 	ldrb	r1, [r0, r2]
  70ca90:	e3510001 	cmp	r1, #1
  70ca94:	aa00008d 	bge	70ccd0 <noMove_AB>
  70ca98:	e59f0990 	ldr	r0, [pc, #2448]	; 70d430 <noMove_DA+0x8>
  70ca9c:	e59f2994 	ldr	r2, [pc, #2452]	; 70d438 <noMove_DA+0x10>
  70caa0:	e5d22000 	ldrb	r2, [r2]
  70caa4:	e1a01002 	mov	r1, r2
  70caa8:	e282200a 	add	r2, r2, #10
  70caac:	ebfff92e 	bl	70af6c <checkIfDifferentLine>
  70cab0:	e3530000 	cmp	r3, #0
  70cab4:	0a000085 	beq	70ccd0 <noMove_AB>
  70cab8:	e35200c7 	cmp	r2, #199	; 0xc7
  70cabc:	ca000083 	bgt	70ccd0 <noMove_AB>
  70cac0:	e3520000 	cmp	r2, #0
  70cac4:	ba000081 	blt	70ccd0 <noMove_AB>
  70cac8:	e7d01002 	ldrb	r1, [r0, r2]
  70cacc:	e3510001 	cmp	r1, #1
  70cad0:	aa00007e 	bge	70ccd0 <noMove_AB>
  70cad4:	e59f0954 	ldr	r0, [pc, #2388]	; 70d430 <noMove_DA+0x8>
  70cad8:	e59f295c 	ldr	r2, [pc, #2396]	; 70d43c <noMove_DA+0x14>
  70cadc:	e5d22000 	ldrb	r2, [r2]
  70cae0:	e2422001 	sub	r2, r2, #1
  70cae4:	e2822014 	add	r2, r2, #20
  70cae8:	e1a01002 	mov	r1, r2
  70caec:	e282200a 	add	r2, r2, #10
  70caf0:	ebfff91d 	bl	70af6c <checkIfDifferentLine>
  70caf4:	e3530000 	cmp	r3, #0
  70caf8:	0a000074 	beq	70ccd0 <noMove_AB>
  70cafc:	e35200c7 	cmp	r2, #199	; 0xc7
  70cb00:	ca000072 	bgt	70ccd0 <noMove_AB>
  70cb04:	e3520000 	cmp	r2, #0
  70cb08:	ba000070 	blt	70ccd0 <noMove_AB>
  70cb0c:	e7d01002 	ldrb	r1, [r0, r2]
  70cb10:	e3510001 	cmp	r1, #1
  70cb14:	aa00006d 	bge	70ccd0 <noMove_AB>
  70cb18:	e59f0910 	ldr	r0, [pc, #2320]	; 70d430 <noMove_DA+0x8>
  70cb1c:	e59f2910 	ldr	r2, [pc, #2320]	; 70d434 <noMove_DA+0xc>
  70cb20:	e5d22000 	ldrb	r2, [r2]
  70cb24:	e3a01000 	mov	r1, #0
  70cb28:	e7c01002 	strb	r1, [r0, r2]
  70cb2c:	e59f08fc 	ldr	r0, [pc, #2300]	; 70d430 <noMove_DA+0x8>
  70cb30:	e59f2908 	ldr	r2, [pc, #2312]	; 70d440 <noMove_DA+0x18>
  70cb34:	e5d22000 	ldrb	r2, [r2]
  70cb38:	e3a01000 	mov	r1, #0
  70cb3c:	e7c01002 	strb	r1, [r0, r2]
  70cb40:	e59f08e8 	ldr	r0, [pc, #2280]	; 70d430 <noMove_DA+0x8>
  70cb44:	e59f28ec 	ldr	r2, [pc, #2284]	; 70d438 <noMove_DA+0x10>
  70cb48:	e5d22000 	ldrb	r2, [r2]
  70cb4c:	e3a01000 	mov	r1, #0
  70cb50:	e7c01002 	strb	r1, [r0, r2]
  70cb54:	e59f08d4 	ldr	r0, [pc, #2260]	; 70d430 <noMove_DA+0x8>
  70cb58:	e59f28dc 	ldr	r2, [pc, #2268]	; 70d43c <noMove_DA+0x14>
  70cb5c:	e5d22000 	ldrb	r2, [r2]
  70cb60:	e3a01000 	mov	r1, #0
  70cb64:	e7c01002 	strb	r1, [r0, r2]
  70cb68:	eb000c2a 	bl	70fc18 <drawSquareBlock>
  70cb6c:	e59f08c0 	ldr	r0, [pc, #2240]	; 70d434 <noMove_DA+0xc>
  70cb70:	e5d02000 	ldrb	r2, [r0]
  70cb74:	e2422001 	sub	r2, r2, #1
  70cb78:	e5c02000 	strb	r2, [r0]
  70cb7c:	e59f08bc 	ldr	r0, [pc, #2236]	; 70d440 <noMove_DA+0x18>
  70cb80:	e5d02000 	ldrb	r2, [r0]
  70cb84:	e2822001 	add	r2, r2, #1
  70cb88:	e5c02000 	strb	r2, [r0]
  70cb8c:	e59f08a4 	ldr	r0, [pc, #2212]	; 70d438 <noMove_DA+0x10>
  70cb90:	e5d02000 	ldrb	r2, [r0]
  70cb94:	e282200a 	add	r2, r2, #10
  70cb98:	e5c02000 	strb	r2, [r0]
  70cb9c:	e59f0898 	ldr	r0, [pc, #2200]	; 70d43c <noMove_DA+0x14>
  70cba0:	e5d02000 	ldrb	r2, [r0]
  70cba4:	e282200a 	add	r2, r2, #10
  70cba8:	e5c02000 	strb	r2, [r0]
  70cbac:	e59f3890 	ldr	r3, [pc, #2192]	; 70d444 <noMove_DA+0x1c>
  70cbb0:	e5933000 	ldr	r3, [r3]
  70cbb4:	e59f2874 	ldr	r2, [pc, #2164]	; 70d430 <noMove_DA+0x8>
  70cbb8:	e59f0874 	ldr	r0, [pc, #2164]	; 70d434 <noMove_DA+0xc>
  70cbbc:	e5d01000 	ldrb	r1, [r0]
  70cbc0:	e7c23001 	strb	r3, [r2, r1]
  70cbc4:	e59f0874 	ldr	r0, [pc, #2164]	; 70d440 <noMove_DA+0x18>
  70cbc8:	e5d01000 	ldrb	r1, [r0]
  70cbcc:	e7c23001 	strb	r3, [r2, r1]
  70cbd0:	e59f0860 	ldr	r0, [pc, #2144]	; 70d438 <noMove_DA+0x10>
  70cbd4:	e5d01000 	ldrb	r1, [r0]
  70cbd8:	e7c23001 	strb	r3, [r2, r1]
  70cbdc:	e59f0858 	ldr	r0, [pc, #2136]	; 70d43c <noMove_DA+0x14>
  70cbe0:	e5d01000 	ldrb	r1, [r0]
  70cbe4:	e7c23001 	strb	r3, [r2, r1]
  70cbe8:	e59f0858 	ldr	r0, [pc, #2136]	; 70d448 <noMove_DA+0x20>
  70cbec:	e3a010ff 	mov	r1, #255	; 0xff
  70cbf0:	e5c01000 	strb	r1, [r0]
  70cbf4:	e3a010ff 	mov	r1, #255	; 0xff
  70cbf8:	e5c01001 	strb	r1, [r0, #1]
  70cbfc:	e59f1834 	ldr	r1, [pc, #2100]	; 70d438 <noMove_DA+0x10>
  70cc00:	e5d11000 	ldrb	r1, [r1]
  70cc04:	e5c01002 	strb	r1, [r0, #2]
  70cc08:	e59f182c 	ldr	r1, [pc, #2092]	; 70d43c <noMove_DA+0x14>
  70cc0c:	e5d11000 	ldrb	r1, [r1]
  70cc10:	e5c01003 	strb	r1, [r0, #3]
  70cc14:	e59f0830 	ldr	r0, [pc, #2096]	; 70d44c <noMove_DA+0x24>
  70cc18:	e59f1814 	ldr	r1, [pc, #2068]	; 70d434 <noMove_DA+0xc>
  70cc1c:	e5d11000 	ldrb	r1, [r1]
  70cc20:	e5c01000 	strb	r1, [r0]
  70cc24:	e59f1814 	ldr	r1, [pc, #2068]	; 70d440 <noMove_DA+0x18>
  70cc28:	e5d11000 	ldrb	r1, [r1]
  70cc2c:	e5c01001 	strb	r1, [r0, #1]
  70cc30:	e59f1800 	ldr	r1, [pc, #2048]	; 70d438 <noMove_DA+0x10>
  70cc34:	e5d11000 	ldrb	r1, [r1]
  70cc38:	e5c01002 	strb	r1, [r0, #2]
  70cc3c:	e3a010ff 	mov	r1, #255	; 0xff
  70cc40:	e5c01003 	strb	r1, [r0, #3]
  70cc44:	e59f0804 	ldr	r0, [pc, #2052]	; 70d450 <noMove_DA+0x28>
  70cc48:	e59f17e4 	ldr	r1, [pc, #2020]	; 70d434 <noMove_DA+0xc>
  70cc4c:	e5d11000 	ldrb	r1, [r1]
  70cc50:	e5c01000 	strb	r1, [r0]
  70cc54:	e59f17e4 	ldr	r1, [pc, #2020]	; 70d440 <noMove_DA+0x18>
  70cc58:	e5d11000 	ldrb	r1, [r1]
  70cc5c:	e5c01001 	strb	r1, [r0, #1]
  70cc60:	e3a010ff 	mov	r1, #255	; 0xff
  70cc64:	e5c01002 	strb	r1, [r0, #2]
  70cc68:	e59f17cc 	ldr	r1, [pc, #1996]	; 70d43c <noMove_DA+0x14>
  70cc6c:	e5d11000 	ldrb	r1, [r1]
  70cc70:	e5c01003 	strb	r1, [r0, #3]
  70cc74:	e59f37d8 	ldr	r3, [pc, #2008]	; 70d454 <noMove_DA+0x2c>
  70cc78:	e59f27d8 	ldr	r2, [pc, #2008]	; 70d458 <noMove_DA+0x30>
  70cc7c:	e5823000 	str	r3, [r2]
  70cc80:	e59f37d4 	ldr	r3, [pc, #2004]	; 70d45c <noMove_DA+0x34>
  70cc84:	e59f27d4 	ldr	r2, [pc, #2004]	; 70d460 <noMove_DA+0x38>
  70cc88:	e5823000 	str	r3, [r2]
  70cc8c:	e3a03040 	mov	r3, #64	; 0x40
  70cc90:	e59f27cc 	ldr	r2, [pc, #1996]	; 70d464 <noMove_DA+0x3c>
  70cc94:	e5c23000 	strb	r3, [r2]
  70cc98:	e3a03060 	mov	r3, #96	; 0x60
  70cc9c:	e59f57c4 	ldr	r5, [pc, #1988]	; 70d468 <noMove_DA+0x40>
  70cca0:	e5c53000 	strb	r3, [r5]
  70cca4:	e59f07c0 	ldr	r0, [pc, #1984]	; 70d46c <noMove_DA+0x44>
  70cca8:	e5d01000 	ldrb	r1, [r0]
  70ccac:	e2811001 	add	r1, r1, #1
  70ccb0:	e5c01000 	strb	r1, [r0]
  70ccb4:	e59f07b4 	ldr	r0, [pc, #1972]	; 70d470 <noMove_DA+0x48>
  70ccb8:	e3a01002 	mov	r1, #2
  70ccbc:	e5c01000 	strb	r1, [r0]
  70ccc0:	e59f07ac 	ldr	r0, [pc, #1964]	; 70d474 <noMove_DA+0x4c>
  70ccc4:	e3a01001 	mov	r1, #1
  70ccc8:	e5c01000 	strb	r1, [r0]
  70cccc:	eb000bd1 	bl	70fc18 <drawSquareBlock>

0070ccd0 <noMove_AB>:
  70ccd0:	e49de004 	pop	{lr}		; (ldr lr, [sp], #4)
  70ccd4:	e1a0f00e 	mov	pc, lr

0070ccd8 <rotate6_BC>:
  70ccd8:	e52de004 	push	{lr}		; (str lr, [sp, #-4]!)
  70ccdc:	e59f074c 	ldr	r0, [pc, #1868]	; 70d430 <noMove_DA+0x8>
  70cce0:	e59f274c 	ldr	r2, [pc, #1868]	; 70d434 <noMove_DA+0xc>
  70cce4:	e5d22000 	ldrb	r2, [r2]
  70cce8:	e1a01002 	mov	r1, r2
  70ccec:	e282200a 	add	r2, r2, #10
  70ccf0:	e2422001 	sub	r2, r2, #1
  70ccf4:	ebfff89c 	bl	70af6c <checkIfDifferentLine>
  70ccf8:	e3530000 	cmp	r3, #0
  70ccfc:	0a000092 	beq	70cf4c <noMove_BC>
  70cd00:	e35200c7 	cmp	r2, #199	; 0xc7
  70cd04:	ca000090 	bgt	70cf4c <noMove_BC>
  70cd08:	e3520000 	cmp	r2, #0
  70cd0c:	ba00008e 	blt	70cf4c <noMove_BC>
  70cd10:	e7d01002 	ldrb	r1, [r0, r2]
  70cd14:	e3510001 	cmp	r1, #1
  70cd18:	aa00008b 	bge	70cf4c <noMove_BC>
  70cd1c:	e59f070c 	ldr	r0, [pc, #1804]	; 70d430 <noMove_DA+0x8>
  70cd20:	e59f2710 	ldr	r2, [pc, #1808]	; 70d438 <noMove_DA+0x10>
  70cd24:	e5d22000 	ldrb	r2, [r2]
  70cd28:	e1a01002 	mov	r1, r2
  70cd2c:	e242200a 	sub	r2, r2, #10
  70cd30:	e2822001 	add	r2, r2, #1
  70cd34:	ebfff88c 	bl	70af6c <checkIfDifferentLine>
  70cd38:	e3530000 	cmp	r3, #0
  70cd3c:	0a000082 	beq	70cf4c <noMove_BC>
  70cd40:	e35200c7 	cmp	r2, #199	; 0xc7
  70cd44:	ca000080 	bgt	70cf4c <noMove_BC>
  70cd48:	e3520000 	cmp	r2, #0
  70cd4c:	ba00007e 	blt	70cf4c <noMove_BC>
  70cd50:	e7d01002 	ldrb	r1, [r0, r2]
  70cd54:	e3510001 	cmp	r1, #1
  70cd58:	aa00007b 	bge	70cf4c <noMove_BC>
  70cd5c:	e59f06cc 	ldr	r0, [pc, #1740]	; 70d430 <noMove_DA+0x8>
  70cd60:	e59f26d4 	ldr	r2, [pc, #1748]	; 70d43c <noMove_DA+0x14>
  70cd64:	e5d22000 	ldrb	r2, [r2]
  70cd68:	e1a01002 	mov	r1, r2
  70cd6c:	e2422002 	sub	r2, r2, #2
  70cd70:	ebfff87d 	bl	70af6c <checkIfDifferentLine>
  70cd74:	e3530000 	cmp	r3, #0
  70cd78:	1a000073 	bne	70cf4c <noMove_BC>
  70cd7c:	e35200c7 	cmp	r2, #199	; 0xc7
  70cd80:	ca000071 	bgt	70cf4c <noMove_BC>
  70cd84:	e3520000 	cmp	r2, #0
  70cd88:	ba00006f 	blt	70cf4c <noMove_BC>
  70cd8c:	e7d01002 	ldrb	r1, [r0, r2]
  70cd90:	e3510001 	cmp	r1, #1
  70cd94:	aa00006c 	bge	70cf4c <noMove_BC>
  70cd98:	e59f0690 	ldr	r0, [pc, #1680]	; 70d430 <noMove_DA+0x8>
  70cd9c:	e59f2690 	ldr	r2, [pc, #1680]	; 70d434 <noMove_DA+0xc>
  70cda0:	e5d22000 	ldrb	r2, [r2]
  70cda4:	e3a01000 	mov	r1, #0
  70cda8:	e7c01002 	strb	r1, [r0, r2]
  70cdac:	e59f067c 	ldr	r0, [pc, #1660]	; 70d430 <noMove_DA+0x8>
  70cdb0:	e59f2688 	ldr	r2, [pc, #1672]	; 70d440 <noMove_DA+0x18>
  70cdb4:	e5d22000 	ldrb	r2, [r2]
  70cdb8:	e3a01000 	mov	r1, #0
  70cdbc:	e7c01002 	strb	r1, [r0, r2]
  70cdc0:	e59f0668 	ldr	r0, [pc, #1640]	; 70d430 <noMove_DA+0x8>
  70cdc4:	e59f266c 	ldr	r2, [pc, #1644]	; 70d438 <noMove_DA+0x10>
  70cdc8:	e5d22000 	ldrb	r2, [r2]
  70cdcc:	e3a01000 	mov	r1, #0
  70cdd0:	e7c01002 	strb	r1, [r0, r2]
  70cdd4:	e59f0654 	ldr	r0, [pc, #1620]	; 70d430 <noMove_DA+0x8>
  70cdd8:	e59f265c 	ldr	r2, [pc, #1628]	; 70d43c <noMove_DA+0x14>
  70cddc:	e5d22000 	ldrb	r2, [r2]
  70cde0:	e3a01000 	mov	r1, #0
  70cde4:	e7c01002 	strb	r1, [r0, r2]
  70cde8:	eb000b8a 	bl	70fc18 <drawSquareBlock>
  70cdec:	e59f0640 	ldr	r0, [pc, #1600]	; 70d434 <noMove_DA+0xc>
  70cdf0:	e5d02000 	ldrb	r2, [r0]
  70cdf4:	e282200a 	add	r2, r2, #10
  70cdf8:	e2422001 	sub	r2, r2, #1
  70cdfc:	e5c02000 	strb	r2, [r0]
  70ce00:	e59f0638 	ldr	r0, [pc, #1592]	; 70d440 <noMove_DA+0x18>
  70ce04:	e5d02000 	ldrb	r2, [r0]
  70ce08:	e59f0628 	ldr	r0, [pc, #1576]	; 70d438 <noMove_DA+0x10>
  70ce0c:	e5d02000 	ldrb	r2, [r0]
  70ce10:	e242200a 	sub	r2, r2, #10
  70ce14:	e2822001 	add	r2, r2, #1
  70ce18:	e5c02000 	strb	r2, [r0]
  70ce1c:	e59f0618 	ldr	r0, [pc, #1560]	; 70d43c <noMove_DA+0x14>
  70ce20:	e5d02000 	ldrb	r2, [r0]
  70ce24:	e2422002 	sub	r2, r2, #2
  70ce28:	e5c02000 	strb	r2, [r0]
  70ce2c:	e59f3610 	ldr	r3, [pc, #1552]	; 70d444 <noMove_DA+0x1c>
  70ce30:	e5d33000 	ldrb	r3, [r3]
  70ce34:	e59f25f4 	ldr	r2, [pc, #1524]	; 70d430 <noMove_DA+0x8>
  70ce38:	e59f05f4 	ldr	r0, [pc, #1524]	; 70d434 <noMove_DA+0xc>
  70ce3c:	e5d01000 	ldrb	r1, [r0]
  70ce40:	e7c23001 	strb	r3, [r2, r1]
  70ce44:	e59f05f4 	ldr	r0, [pc, #1524]	; 70d440 <noMove_DA+0x18>
  70ce48:	e5d01000 	ldrb	r1, [r0]
  70ce4c:	e7c23001 	strb	r3, [r2, r1]
  70ce50:	e59f05e0 	ldr	r0, [pc, #1504]	; 70d438 <noMove_DA+0x10>
  70ce54:	e5d01000 	ldrb	r1, [r0]
  70ce58:	e7c23001 	strb	r3, [r2, r1]
  70ce5c:	e59f05d8 	ldr	r0, [pc, #1496]	; 70d43c <noMove_DA+0x14>
  70ce60:	e5d01000 	ldrb	r1, [r0]
  70ce64:	e7c23001 	strb	r3, [r2, r1]
  70ce68:	e59f05d8 	ldr	r0, [pc, #1496]	; 70d448 <noMove_DA+0x20>
  70ce6c:	e3a010ff 	mov	r1, #255	; 0xff
  70ce70:	e5c01000 	strb	r1, [r0]
  70ce74:	e59f35c4 	ldr	r3, [pc, #1476]	; 70d440 <noMove_DA+0x18>
  70ce78:	e5d31000 	ldrb	r1, [r3]
  70ce7c:	e5c01001 	strb	r1, [r0, #1]
  70ce80:	e59f35b0 	ldr	r3, [pc, #1456]	; 70d438 <noMove_DA+0x10>
  70ce84:	e5d31000 	ldrb	r1, [r3]
  70ce88:	e5c01002 	strb	r1, [r0, #2]
  70ce8c:	e59f35a8 	ldr	r3, [pc, #1448]	; 70d43c <noMove_DA+0x14>
  70ce90:	e5d31000 	ldrb	r1, [r3]
  70ce94:	e5c01003 	strb	r1, [r0, #3]
  70ce98:	e59f05ac 	ldr	r0, [pc, #1452]	; 70d44c <noMove_DA+0x24>
  70ce9c:	e59f3590 	ldr	r3, [pc, #1424]	; 70d434 <noMove_DA+0xc>
  70cea0:	e5d31000 	ldrb	r1, [r3]
  70cea4:	e5c01000 	strb	r1, [r0]
  70cea8:	e3a010ff 	mov	r1, #255	; 0xff
  70ceac:	e5c01001 	strb	r1, [r0, #1]
  70ceb0:	e3a010ff 	mov	r1, #255	; 0xff
  70ceb4:	e5c01002 	strb	r1, [r0, #2]
  70ceb8:	e59f357c 	ldr	r3, [pc, #1404]	; 70d43c <noMove_DA+0x14>
  70cebc:	e5d31000 	ldrb	r1, [r3]
  70cec0:	e5c01003 	strb	r1, [r0, #3]
  70cec4:	e59f0584 	ldr	r0, [pc, #1412]	; 70d450 <noMove_DA+0x28>
  70cec8:	e59f3568 	ldr	r3, [pc, #1384]	; 70d438 <noMove_DA+0x10>
  70cecc:	e5d31000 	ldrb	r1, [r3]
  70ced0:	e5c01000 	strb	r1, [r0]
  70ced4:	e3a010ff 	mov	r1, #255	; 0xff
  70ced8:	e5c01001 	strb	r1, [r0, #1]
  70cedc:	e3a010ff 	mov	r1, #255	; 0xff
  70cee0:	e5c01002 	strb	r1, [r0, #2]
  70cee4:	e59f3550 	ldr	r3, [pc, #1360]	; 70d43c <noMove_DA+0x14>
  70cee8:	e5d31000 	ldrb	r1, [r3]
  70ceec:	e5c01003 	strb	r1, [r0, #3]
  70cef0:	e59f3580 	ldr	r3, [pc, #1408]	; 70d478 <noMove_DA+0x50>
  70cef4:	e59f255c 	ldr	r2, [pc, #1372]	; 70d458 <noMove_DA+0x30>
  70cef8:	e5823000 	str	r3, [r2]
  70cefc:	e59f3578 	ldr	r3, [pc, #1400]	; 70d47c <noMove_DA+0x54>
  70cf00:	e59f2558 	ldr	r2, [pc, #1368]	; 70d460 <noMove_DA+0x38>
  70cf04:	e5823000 	str	r3, [r2]
  70cf08:	e3a03060 	mov	r3, #96	; 0x60
  70cf0c:	e59f2550 	ldr	r2, [pc, #1360]	; 70d464 <noMove_DA+0x3c>
  70cf10:	e5c23000 	strb	r3, [r2]
  70cf14:	e3a03040 	mov	r3, #64	; 0x40
  70cf18:	e59f5548 	ldr	r5, [pc, #1352]	; 70d468 <noMove_DA+0x40>
  70cf1c:	e5c53000 	strb	r3, [r5]
  70cf20:	e59f0544 	ldr	r0, [pc, #1348]	; 70d46c <noMove_DA+0x44>
  70cf24:	e5d01000 	ldrb	r1, [r0]
  70cf28:	e2411001 	sub	r1, r1, #1
  70cf2c:	e5c01000 	strb	r1, [r0]
  70cf30:	e59f0538 	ldr	r0, [pc, #1336]	; 70d470 <noMove_DA+0x48>
  70cf34:	e3a01003 	mov	r1, #3
  70cf38:	e5c01000 	strb	r1, [r0]
  70cf3c:	e59f0530 	ldr	r0, [pc, #1328]	; 70d474 <noMove_DA+0x4c>
  70cf40:	e3a01002 	mov	r1, #2
  70cf44:	e5c01000 	strb	r1, [r0]
  70cf48:	eb000b32 	bl	70fc18 <drawSquareBlock>

0070cf4c <noMove_BC>:
  70cf4c:	e49de004 	pop	{lr}		; (ldr lr, [sp], #4)
  70cf50:	e1a0f00e 	mov	pc, lr

0070cf54 <rotate6_CD>:
  70cf54:	e52de004 	push	{lr}		; (str lr, [sp, #-4]!)
  70cf58:	e59f04d0 	ldr	r0, [pc, #1232]	; 70d430 <noMove_DA+0x8>
  70cf5c:	e59f24d0 	ldr	r2, [pc, #1232]	; 70d434 <noMove_DA+0xc>
  70cf60:	e5d22000 	ldrb	r2, [r2]
  70cf64:	e1a01002 	mov	r1, r2
  70cf68:	e242200a 	sub	r2, r2, #10
  70cf6c:	ebfff7fe 	bl	70af6c <checkIfDifferentLine>
  70cf70:	e3530000 	cmp	r3, #0
  70cf74:	0a000090 	beq	70d1bc <noMove_CD>
  70cf78:	e35200c7 	cmp	r2, #199	; 0xc7
  70cf7c:	ca00008e 	bgt	70d1bc <noMove_CD>
  70cf80:	e3520000 	cmp	r2, #0
  70cf84:	ba00008c 	blt	70d1bc <noMove_CD>
  70cf88:	e7d01002 	ldrb	r1, [r0, r2]
  70cf8c:	e3510001 	cmp	r1, #1
  70cf90:	aa000089 	bge	70d1bc <noMove_CD>
  70cf94:	e59f0494 	ldr	r0, [pc, #1172]	; 70d430 <noMove_DA+0x8>
  70cf98:	e59f24a0 	ldr	r2, [pc, #1184]	; 70d440 <noMove_DA+0x18>
  70cf9c:	e5d22000 	ldrb	r2, [r2]
  70cfa0:	e1a01002 	mov	r1, r2
  70cfa4:	e242200a 	sub	r2, r2, #10
  70cfa8:	ebfff7ef 	bl	70af6c <checkIfDifferentLine>
  70cfac:	e3530000 	cmp	r3, #0
  70cfb0:	0a000081 	beq	70d1bc <noMove_CD>
  70cfb4:	e35200c7 	cmp	r2, #199	; 0xc7
  70cfb8:	ca00007f 	bgt	70d1bc <noMove_CD>
  70cfbc:	e3520000 	cmp	r2, #0
  70cfc0:	ba00007d 	blt	70d1bc <noMove_CD>
  70cfc4:	e7d01002 	ldrb	r1, [r0, r2]
  70cfc8:	e3510001 	cmp	r1, #1
  70cfcc:	aa00007a 	bge	70d1bc <noMove_CD>
  70cfd0:	e59f0458 	ldr	r0, [pc, #1112]	; 70d430 <noMove_DA+0x8>
  70cfd4:	e59f2460 	ldr	r2, [pc, #1120]	; 70d43c <noMove_DA+0x14>
  70cfd8:	e5d22000 	ldrb	r2, [r2]
  70cfdc:	e1a01002 	mov	r1, r2
  70cfe0:	e2822001 	add	r2, r2, #1
  70cfe4:	ebfff7e0 	bl	70af6c <checkIfDifferentLine>
  70cfe8:	e3530000 	cmp	r3, #0
  70cfec:	1a000072 	bne	70d1bc <noMove_CD>
  70cff0:	e35200c7 	cmp	r2, #199	; 0xc7
  70cff4:	ca000070 	bgt	70d1bc <noMove_CD>
  70cff8:	e3520000 	cmp	r2, #0
  70cffc:	ba00006e 	blt	70d1bc <noMove_CD>
  70d000:	e7d01002 	ldrb	r1, [r0, r2]
  70d004:	e3510001 	cmp	r1, #1
  70d008:	aa00006b 	bge	70d1bc <noMove_CD>
  70d00c:	e59f041c 	ldr	r0, [pc, #1052]	; 70d430 <noMove_DA+0x8>
  70d010:	e59f241c 	ldr	r2, [pc, #1052]	; 70d434 <noMove_DA+0xc>
  70d014:	e5d22000 	ldrb	r2, [r2]
  70d018:	e3a01000 	mov	r1, #0
  70d01c:	e7c01002 	strb	r1, [r0, r2]
  70d020:	e59f0408 	ldr	r0, [pc, #1032]	; 70d430 <noMove_DA+0x8>
  70d024:	e59f2414 	ldr	r2, [pc, #1044]	; 70d440 <noMove_DA+0x18>
  70d028:	e5d22000 	ldrb	r2, [r2]
  70d02c:	e3a01000 	mov	r1, #0
  70d030:	e7c01002 	strb	r1, [r0, r2]
  70d034:	e59f03f4 	ldr	r0, [pc, #1012]	; 70d430 <noMove_DA+0x8>
  70d038:	e59f23f8 	ldr	r2, [pc, #1016]	; 70d438 <noMove_DA+0x10>
  70d03c:	e5d22000 	ldrb	r2, [r2]
  70d040:	e3a01000 	mov	r1, #0
  70d044:	e7c01002 	strb	r1, [r0, r2]
  70d048:	e59f03e0 	ldr	r0, [pc, #992]	; 70d430 <noMove_DA+0x8>
  70d04c:	e59f23e8 	ldr	r2, [pc, #1000]	; 70d43c <noMove_DA+0x14>
  70d050:	e5d22000 	ldrb	r2, [r2]
  70d054:	e3a01000 	mov	r1, #0
  70d058:	e7c01002 	strb	r1, [r0, r2]
  70d05c:	eb000aed 	bl	70fc18 <drawSquareBlock>
  70d060:	e59f03cc 	ldr	r0, [pc, #972]	; 70d434 <noMove_DA+0xc>
  70d064:	e5d02000 	ldrb	r2, [r0]
  70d068:	e242200a 	sub	r2, r2, #10
  70d06c:	e5c02000 	strb	r2, [r0]
  70d070:	e59f03c8 	ldr	r0, [pc, #968]	; 70d440 <noMove_DA+0x18>
  70d074:	e5d02000 	ldrb	r2, [r0]
  70d078:	e242200a 	sub	r2, r2, #10
  70d07c:	e5c02000 	strb	r2, [r0]
  70d080:	e59f03b0 	ldr	r0, [pc, #944]	; 70d438 <noMove_DA+0x10>
  70d084:	e5d02000 	ldrb	r2, [r0]
  70d088:	e2422001 	sub	r2, r2, #1
  70d08c:	e5c02000 	strb	r2, [r0]
  70d090:	e59f03a4 	ldr	r0, [pc, #932]	; 70d43c <noMove_DA+0x14>
  70d094:	e5d02000 	ldrb	r2, [r0]
  70d098:	e2822001 	add	r2, r2, #1
  70d09c:	e5c02000 	strb	r2, [r0]
  70d0a0:	e59f339c 	ldr	r3, [pc, #924]	; 70d444 <noMove_DA+0x1c>
  70d0a4:	e5d33000 	ldrb	r3, [r3]
  70d0a8:	e59f2380 	ldr	r2, [pc, #896]	; 70d430 <noMove_DA+0x8>
  70d0ac:	e59f0380 	ldr	r0, [pc, #896]	; 70d434 <noMove_DA+0xc>
  70d0b0:	e5d01000 	ldrb	r1, [r0]
  70d0b4:	e7c23001 	strb	r3, [r2, r1]
  70d0b8:	e59f0380 	ldr	r0, [pc, #896]	; 70d440 <noMove_DA+0x18>
  70d0bc:	e5d01000 	ldrb	r1, [r0]
  70d0c0:	e7c23001 	strb	r3, [r2, r1]
  70d0c4:	e59f036c 	ldr	r0, [pc, #876]	; 70d438 <noMove_DA+0x10>
  70d0c8:	e5d01000 	ldrb	r1, [r0]
  70d0cc:	e7c23001 	strb	r3, [r2, r1]
  70d0d0:	e59f0364 	ldr	r0, [pc, #868]	; 70d43c <noMove_DA+0x14>
  70d0d4:	e5d01000 	ldrb	r1, [r0]
  70d0d8:	e7c23001 	strb	r3, [r2, r1]
  70d0dc:	e59f0364 	ldr	r0, [pc, #868]	; 70d448 <noMove_DA+0x20>
  70d0e0:	e59f334c 	ldr	r3, [pc, #844]	; 70d434 <noMove_DA+0xc>
  70d0e4:	e5931000 	ldr	r1, [r3]
  70d0e8:	e5c01000 	strb	r1, [r0]
  70d0ec:	e3a010ff 	mov	r1, #255	; 0xff
  70d0f0:	e5c01001 	strb	r1, [r0, #1]
  70d0f4:	e3a010ff 	mov	r1, #255	; 0xff
  70d0f8:	e5c01002 	strb	r1, [r0, #2]
  70d0fc:	e59f3338 	ldr	r3, [pc, #824]	; 70d43c <noMove_DA+0x14>
  70d100:	e5d31000 	ldrb	r1, [r3]
  70d104:	e5c01003 	strb	r1, [r0, #3]
  70d108:	e59f033c 	ldr	r0, [pc, #828]	; 70d44c <noMove_DA+0x24>
  70d10c:	e59f3320 	ldr	r3, [pc, #800]	; 70d434 <noMove_DA+0xc>
  70d110:	e5931000 	ldr	r1, [r3]
  70d114:	e5c01000 	strb	r1, [r0]
  70d118:	e3a010ff 	mov	r1, #255	; 0xff
  70d11c:	e5c01001 	strb	r1, [r0, #1]
  70d120:	e59f3310 	ldr	r3, [pc, #784]	; 70d438 <noMove_DA+0x10>
  70d124:	e5d31000 	ldrb	r1, [r3]
  70d128:	e5c01002 	strb	r1, [r0, #2]
  70d12c:	e59f3308 	ldr	r3, [pc, #776]	; 70d43c <noMove_DA+0x14>
  70d130:	e5d31000 	ldrb	r1, [r3]
  70d134:	e5c01003 	strb	r1, [r0, #3]
  70d138:	e59f0310 	ldr	r0, [pc, #784]	; 70d450 <noMove_DA+0x28>
  70d13c:	e3a010ff 	mov	r1, #255	; 0xff
  70d140:	e5c01000 	strb	r1, [r0]
  70d144:	e59f32f4 	ldr	r3, [pc, #756]	; 70d440 <noMove_DA+0x18>
  70d148:	e5d31000 	ldrb	r1, [r3]
  70d14c:	e5c01001 	strb	r1, [r0, #1]
  70d150:	e59f32e0 	ldr	r3, [pc, #736]	; 70d438 <noMove_DA+0x10>
  70d154:	e5d31000 	ldrb	r1, [r3]
  70d158:	e5c01002 	strb	r1, [r0, #2]
  70d15c:	e59f32d8 	ldr	r3, [pc, #728]	; 70d43c <noMove_DA+0x14>
  70d160:	e5d31000 	ldrb	r1, [r3]
  70d164:	e5c01003 	strb	r1, [r0, #3]
  70d168:	e59f3310 	ldr	r3, [pc, #784]	; 70d480 <noMove_DA+0x58>
  70d16c:	e59f22e4 	ldr	r2, [pc, #740]	; 70d458 <noMove_DA+0x30>
  70d170:	e5823000 	str	r3, [r2]
  70d174:	e59f3308 	ldr	r3, [pc, #776]	; 70d484 <noMove_DA+0x5c>
  70d178:	e59f22e0 	ldr	r2, [pc, #736]	; 70d460 <noMove_DA+0x38>
  70d17c:	e5823000 	str	r3, [r2]
  70d180:	e3a03040 	mov	r3, #64	; 0x40
  70d184:	e59f22d8 	ldr	r2, [pc, #728]	; 70d464 <noMove_DA+0x3c>
  70d188:	e5c23000 	strb	r3, [r2]
  70d18c:	e3a03060 	mov	r3, #96	; 0x60
  70d190:	e59f52d0 	ldr	r5, [pc, #720]	; 70d468 <noMove_DA+0x40>
  70d194:	e5c53000 	strb	r3, [r5]
  70d198:	e59f02cc 	ldr	r0, [pc, #716]	; 70d46c <noMove_DA+0x44>
  70d19c:	e5d01000 	ldrb	r1, [r0]
  70d1a0:	e59f02c8 	ldr	r0, [pc, #712]	; 70d470 <noMove_DA+0x48>
  70d1a4:	e3a01002 	mov	r1, #2
  70d1a8:	e5c01000 	strb	r1, [r0]
  70d1ac:	e59f02c0 	ldr	r0, [pc, #704]	; 70d474 <noMove_DA+0x4c>
  70d1b0:	e3a01003 	mov	r1, #3
  70d1b4:	e5c01000 	strb	r1, [r0]
  70d1b8:	eb000a96 	bl	70fc18 <drawSquareBlock>

0070d1bc <noMove_CD>:
  70d1bc:	e49de004 	pop	{lr}		; (ldr lr, [sp], #4)
  70d1c0:	e1a0f00e 	mov	pc, lr

0070d1c4 <rotate6_DA>:
  70d1c4:	e52de004 	push	{lr}		; (str lr, [sp, #-4]!)
  70d1c8:	e59f0260 	ldr	r0, [pc, #608]	; 70d430 <noMove_DA+0x8>
  70d1cc:	e59f2260 	ldr	r2, [pc, #608]	; 70d434 <noMove_DA+0xc>
  70d1d0:	e5d22000 	ldrb	r2, [r2]
  70d1d4:	e1a01002 	mov	r1, r2
  70d1d8:	e2822002 	add	r2, r2, #2
  70d1dc:	ebfff762 	bl	70af6c <checkIfDifferentLine>
  70d1e0:	e3530000 	cmp	r3, #0
  70d1e4:	1a00008f 	bne	70d428 <noMove_DA>
  70d1e8:	e35200c7 	cmp	r2, #199	; 0xc7
  70d1ec:	ca00008d 	bgt	70d428 <noMove_DA>
  70d1f0:	e3520000 	cmp	r2, #0
  70d1f4:	ba00008b 	blt	70d428 <noMove_DA>
  70d1f8:	e7d01002 	ldrb	r1, [r0, r2]
  70d1fc:	e3510001 	cmp	r1, #1
  70d200:	aa000088 	bge	70d428 <noMove_DA>
  70d204:	e59f0224 	ldr	r0, [pc, #548]	; 70d430 <noMove_DA+0x8>
  70d208:	e59f2230 	ldr	r2, [pc, #560]	; 70d440 <noMove_DA+0x18>
  70d20c:	e5d22000 	ldrb	r2, [r2]
  70d210:	e1a01002 	mov	r1, r2
  70d214:	e2422001 	sub	r2, r2, #1
  70d218:	e282200a 	add	r2, r2, #10
  70d21c:	ebfff752 	bl	70af6c <checkIfDifferentLine>
  70d220:	e3530000 	cmp	r3, #0
  70d224:	0a00007f 	beq	70d428 <noMove_DA>
  70d228:	e35200c7 	cmp	r2, #199	; 0xc7
  70d22c:	ca00007d 	bgt	70d428 <noMove_DA>
  70d230:	e3520000 	cmp	r2, #0
  70d234:	ba00007b 	blt	70d428 <noMove_DA>
  70d238:	e7d01002 	ldrb	r1, [r0, r2]
  70d23c:	e3510001 	cmp	r1, #1
  70d240:	aa000078 	bge	70d428 <noMove_DA>
  70d244:	e59f01e4 	ldr	r0, [pc, #484]	; 70d430 <noMove_DA+0x8>
  70d248:	e59f21ec 	ldr	r2, [pc, #492]	; 70d43c <noMove_DA+0x14>
  70d24c:	e5d22000 	ldrb	r2, [r2]
  70d250:	e1a01002 	mov	r1, r2
  70d254:	e242200a 	sub	r2, r2, #10
  70d258:	e2822001 	add	r2, r2, #1
  70d25c:	ebfff742 	bl	70af6c <checkIfDifferentLine>
  70d260:	e3530000 	cmp	r3, #0
  70d264:	0a00006f 	beq	70d428 <noMove_DA>
  70d268:	e35200c7 	cmp	r2, #199	; 0xc7
  70d26c:	ca00006d 	bgt	70d428 <noMove_DA>
  70d270:	e3520000 	cmp	r2, #0
  70d274:	ba00006b 	blt	70d428 <noMove_DA>
  70d278:	e7d01002 	ldrb	r1, [r0, r2]
  70d27c:	e3510001 	cmp	r1, #1
  70d280:	aa000068 	bge	70d428 <noMove_DA>
  70d284:	e59f01a4 	ldr	r0, [pc, #420]	; 70d430 <noMove_DA+0x8>
  70d288:	e59f21a4 	ldr	r2, [pc, #420]	; 70d434 <noMove_DA+0xc>
  70d28c:	e5d22000 	ldrb	r2, [r2]
  70d290:	e3a01000 	mov	r1, #0
  70d294:	e7c01002 	strb	r1, [r0, r2]
  70d298:	e59f0190 	ldr	r0, [pc, #400]	; 70d430 <noMove_DA+0x8>
  70d29c:	e59f219c 	ldr	r2, [pc, #412]	; 70d440 <noMove_DA+0x18>
  70d2a0:	e5d22000 	ldrb	r2, [r2]
  70d2a4:	e3a01000 	mov	r1, #0
  70d2a8:	e7c01002 	strb	r1, [r0, r2]
  70d2ac:	e59f017c 	ldr	r0, [pc, #380]	; 70d430 <noMove_DA+0x8>
  70d2b0:	e59f2180 	ldr	r2, [pc, #384]	; 70d438 <noMove_DA+0x10>
  70d2b4:	e5d22000 	ldrb	r2, [r2]
  70d2b8:	e3a01000 	mov	r1, #0
  70d2bc:	e7c01002 	strb	r1, [r0, r2]
  70d2c0:	e59f0168 	ldr	r0, [pc, #360]	; 70d430 <noMove_DA+0x8>
  70d2c4:	e59f2170 	ldr	r2, [pc, #368]	; 70d43c <noMove_DA+0x14>
  70d2c8:	e5d22000 	ldrb	r2, [r2]
  70d2cc:	e3a01000 	mov	r1, #0
  70d2d0:	e7c01002 	strb	r1, [r0, r2]
  70d2d4:	eb000a4f 	bl	70fc18 <drawSquareBlock>
  70d2d8:	e59f0154 	ldr	r0, [pc, #340]	; 70d434 <noMove_DA+0xc>
  70d2dc:	e5d02000 	ldrb	r2, [r0]
  70d2e0:	e2822002 	add	r2, r2, #2
  70d2e4:	e5c02000 	strb	r2, [r0]
  70d2e8:	e59f0150 	ldr	r0, [pc, #336]	; 70d440 <noMove_DA+0x18>
  70d2ec:	e5d02000 	ldrb	r2, [r0]
  70d2f0:	e282200a 	add	r2, r2, #10
  70d2f4:	e2422001 	sub	r2, r2, #1
  70d2f8:	e5c02000 	strb	r2, [r0]
  70d2fc:	e59f0138 	ldr	r0, [pc, #312]	; 70d43c <noMove_DA+0x14>
  70d300:	e5d02000 	ldrb	r2, [r0]
  70d304:	e242200a 	sub	r2, r2, #10
  70d308:	e2822001 	add	r2, r2, #1
  70d30c:	e5c02000 	strb	r2, [r0]
  70d310:	e59f312c 	ldr	r3, [pc, #300]	; 70d444 <noMove_DA+0x1c>
  70d314:	e5d33000 	ldrb	r3, [r3]
  70d318:	e59f2110 	ldr	r2, [pc, #272]	; 70d430 <noMove_DA+0x8>
  70d31c:	e59f0110 	ldr	r0, [pc, #272]	; 70d434 <noMove_DA+0xc>
  70d320:	e5d01000 	ldrb	r1, [r0]
  70d324:	e7c23001 	strb	r3, [r2, r1]
  70d328:	e59f0110 	ldr	r0, [pc, #272]	; 70d440 <noMove_DA+0x18>
  70d32c:	e5d01000 	ldrb	r1, [r0]
  70d330:	e7c23001 	strb	r3, [r2, r1]
  70d334:	e59f00fc 	ldr	r0, [pc, #252]	; 70d438 <noMove_DA+0x10>
  70d338:	e5d01000 	ldrb	r1, [r0]
  70d33c:	e7c23001 	strb	r3, [r2, r1]
  70d340:	e59f00f4 	ldr	r0, [pc, #244]	; 70d43c <noMove_DA+0x14>
  70d344:	e5d01000 	ldrb	r1, [r0]
  70d348:	e7c23001 	strb	r3, [r2, r1]
  70d34c:	e59f00f4 	ldr	r0, [pc, #244]	; 70d448 <noMove_DA+0x20>
  70d350:	e3a010ff 	mov	r1, #255	; 0xff
  70d354:	e5c01000 	strb	r1, [r0]
  70d358:	e59f30e0 	ldr	r3, [pc, #224]	; 70d440 <noMove_DA+0x18>
  70d35c:	e5d31000 	ldrb	r1, [r3]
  70d360:	e5c01001 	strb	r1, [r0, #1]
  70d364:	e59f30cc 	ldr	r3, [pc, #204]	; 70d438 <noMove_DA+0x10>
  70d368:	e5d31000 	ldrb	r1, [r3]
  70d36c:	e5c01002 	strb	r1, [r0, #2]
  70d370:	e59f30c4 	ldr	r3, [pc, #196]	; 70d43c <noMove_DA+0x14>
  70d374:	e5d31000 	ldrb	r1, [r3]
  70d378:	e5c01003 	strb	r1, [r0, #3]
  70d37c:	e59f00c8 	ldr	r0, [pc, #200]	; 70d44c <noMove_DA+0x24>
  70d380:	e59f30ac 	ldr	r3, [pc, #172]	; 70d434 <noMove_DA+0xc>
  70d384:	e5d31000 	ldrb	r1, [r3]
  70d388:	e5c01000 	strb	r1, [r0]
  70d38c:	e59f30ac 	ldr	r3, [pc, #172]	; 70d440 <noMove_DA+0x18>
  70d390:	e5d31000 	ldrb	r1, [r3]
  70d394:	e5c01001 	strb	r1, [r0, #1]
  70d398:	e3a010ff 	mov	r1, #255	; 0xff
  70d39c:	e5c01002 	strb	r1, [r0, #2]
  70d3a0:	e3a010ff 	mov	r1, #255	; 0xff
  70d3a4:	e5c01003 	strb	r1, [r0, #3]
  70d3a8:	e59f00a0 	ldr	r0, [pc, #160]	; 70d450 <noMove_DA+0x28>
  70d3ac:	e59f3080 	ldr	r3, [pc, #128]	; 70d434 <noMove_DA+0xc>
  70d3b0:	e5d31000 	ldrb	r1, [r3]
  70d3b4:	e5c01000 	strb	r1, [r0]
  70d3b8:	e59f307c 	ldr	r3, [pc, #124]	; 70d43c <noMove_DA+0x14>
  70d3bc:	e5d31000 	ldrb	r1, [r3]
  70d3c0:	e5c01001 	strb	r1, [r0, #1]
  70d3c4:	e3a010ff 	mov	r1, #255	; 0xff
  70d3c8:	e5c01002 	strb	r1, [r0, #2]
  70d3cc:	e3a010ff 	mov	r1, #255	; 0xff
  70d3d0:	e5c01003 	strb	r1, [r0, #3]
  70d3d4:	e59f30ac 	ldr	r3, [pc, #172]	; 70d488 <noMove_DA+0x60>
  70d3d8:	e59f2078 	ldr	r2, [pc, #120]	; 70d458 <noMove_DA+0x30>
  70d3dc:	e5823000 	str	r3, [r2]
  70d3e0:	e59f30a4 	ldr	r3, [pc, #164]	; 70d48c <noMove_DA+0x64>
  70d3e4:	e59f2074 	ldr	r2, [pc, #116]	; 70d460 <noMove_DA+0x38>
  70d3e8:	e5823000 	str	r3, [r2]
  70d3ec:	e3a03060 	mov	r3, #96	; 0x60
  70d3f0:	e59f206c 	ldr	r2, [pc, #108]	; 70d464 <noMove_DA+0x3c>
  70d3f4:	e5c23000 	strb	r3, [r2]
  70d3f8:	e3a03040 	mov	r3, #64	; 0x40
  70d3fc:	e59f5064 	ldr	r5, [pc, #100]	; 70d468 <noMove_DA+0x40>
  70d400:	e5c53000 	strb	r3, [r5]
  70d404:	e59f0060 	ldr	r0, [pc, #96]	; 70d46c <noMove_DA+0x44>
  70d408:	e5d01000 	ldrb	r1, [r0]
  70d40c:	e59f005c 	ldr	r0, [pc, #92]	; 70d470 <noMove_DA+0x48>
  70d410:	e3a01003 	mov	r1, #3
  70d414:	e5c01000 	strb	r1, [r0]
  70d418:	e59f0054 	ldr	r0, [pc, #84]	; 70d474 <noMove_DA+0x4c>
  70d41c:	e3a01000 	mov	r1, #0
  70d420:	e5c01000 	strb	r1, [r0]
  70d424:	eb0009fb 	bl	70fc18 <drawSquareBlock>

0070d428 <noMove_DA>:
  70d428:	e49de004 	pop	{lr}		; (ldr lr, [sp], #4)
  70d42c:	e1a0f00e 	mov	pc, lr
  70d430:	006c4e98 	.word	0x006c4e98
  70d434:	006c4f60 	.word	0x006c4f60
  70d438:	006c4f62 	.word	0x006c4f62
  70d43c:	006c4f63 	.word	0x006c4f63
  70d440:	006c4f61 	.word	0x006c4f61
  70d444:	006c4f7c 	.word	0x006c4f7c
  70d448:	006c4f64 	.word	0x006c4f64
  70d44c:	006c4f68 	.word	0x006c4f68
  70d450:	006c4f6c 	.word	0x006c4f6c
  70d454:	006b2e98 	.word	0x006b2e98
  70d458:	006c4f70 	.word	0x006c4f70
  70d45c:	006b5e98 	.word	0x006b5e98
  70d460:	006c4f74 	.word	0x006c4f74
  70d464:	006c4f78 	.word	0x006c4f78
  70d468:	006c4f79 	.word	0x006c4f79
  70d46c:	006c4f7a 	.word	0x006c4f7a
  70d470:	006c4f7b 	.word	0x006c4f7b
  70d474:	006c4f7d 	.word	0x006c4f7d
  70d478:	006b8e98 	.word	0x006b8e98
  70d47c:	006bbe98 	.word	0x006bbe98
  70d480:	006bee98 	.word	0x006bee98
  70d484:	006c1e98 	.word	0x006c1e98
  70d488:	006ace98 	.word	0x006ace98
  70d48c:	006afe98 	.word	0x006afe98

0070d490 <clearScreen>:
  70d490:	e52de004 	push	{lr}		; (str lr, [sp, #-4]!)
  70d494:	e52d4004 	push	{r4}		; (str r4, [sp, #-4]!)
  70d498:	e3a02000 	mov	r2, #0
  70d49c:	e3a03b01 	mov	r3, #1024	; 0x400
  70d4a0:	e3a04c03 	mov	r4, #768	; 0x300
  70d4a4:	e3a01000 	mov	r1, #0
  70d4a8:	e3a00000 	mov	r0, #0
  70d4ac:	eb000002 	bl	70d4bc <drawBlock>
  70d4b0:	e49d4004 	pop	{r4}		; (ldr r4, [sp], #4)
  70d4b4:	e49de004 	pop	{lr}		; (ldr lr, [sp], #4)
  70d4b8:	e1a0f00e 	mov	pc, lr

0070d4bc <drawBlock>:
  70d4bc:	e52de004 	push	{lr}		; (str lr, [sp, #-4]!)
  70d4c0:	e92d03e0 	push	{r5, r6, r7, r8, r9}
  70d4c4:	e1a05001 	mov	r5, r1
  70d4c8:	e1a06000 	mov	r6, r0
  70d4cc:	e1a07002 	mov	r7, r2
  70d4d0:	e1a08003 	mov	r8, r3
  70d4d4:	e1a09004 	mov	r9, r4
  70d4d8:	e0899005 	add	r9, r9, r5

0070d4dc <cs_drawHeight>:
  70d4dc:	e1550009 	cmp	r5, r9
  70d4e0:	0a00000b 	beq	70d514 <cs_totalEnd>
  70d4e4:	e52d6004 	push	{r6}		; (str r6, [sp, #-4]!)

0070d4e8 <cs_drawLoop>:
  70d4e8:	e1560008 	cmp	r6, r8
  70d4ec:	0a000005 	beq	70d508 <cs_endLoop>
  70d4f0:	e1a00006 	mov	r0, r6
  70d4f4:	e1a01005 	mov	r1, r5
  70d4f8:	e1a02007 	mov	r2, r7
  70d4fc:	eb00006e 	bl	70d6bc <DrawPixel>
  70d500:	e2866001 	add	r6, r6, #1
  70d504:	eafffff7 	b	70d4e8 <cs_drawLoop>

0070d508 <cs_endLoop>:
  70d508:	e2855001 	add	r5, r5, #1
  70d50c:	e49d6004 	pop	{r6}		; (ldr r6, [sp], #4)
  70d510:	eafffff1 	b	70d4dc <cs_drawHeight>

0070d514 <cs_totalEnd>:
  70d514:	e8bd03e0 	pop	{r5, r6, r7, r8, r9}
  70d518:	e49de004 	pop	{lr}		; (ldr lr, [sp], #4)
  70d51c:	e1a0f00e 	mov	pc, lr

0070d520 <drawImage>:
  70d520:	e52de004 	push	{lr}		; (str lr, [sp, #-4]!)
  70d524:	e92d01c0 	push	{r6, r7, r8}
  70d528:	e1a08002 	mov	r8, r2
  70d52c:	e1a07000 	mov	r7, r0
  70d530:	e3a06000 	mov	r6, #0

0070d534 <di_drawOuter>:
  70d534:	e1560003 	cmp	r6, r3
  70d538:	0a00000f 	beq	70d57c <di_end>
  70d53c:	e1a00007 	mov	r0, r7
  70d540:	e52d6004 	push	{r6}		; (str r6, [sp, #-4]!)
  70d544:	e3a06000 	mov	r6, #0

0070d548 <di_drawInner>:
  70d548:	e1560008 	cmp	r6, r8
  70d54c:	0a000006 	beq	70d56c <di_endDraw>
  70d550:	e1d420b0 	ldrh	r2, [r4]
  70d554:	eb000058 	bl	70d6bc <DrawPixel>
  70d558:	e2844002 	add	r4, r4, #2
  70d55c:	e2866001 	add	r6, r6, #1
  70d560:	e1a00006 	mov	r0, r6
  70d564:	e0800007 	add	r0, r0, r7
  70d568:	eafffff6 	b	70d548 <di_drawInner>

0070d56c <di_endDraw>:
  70d56c:	e49d6004 	pop	{r6}		; (ldr r6, [sp], #4)
  70d570:	e2811001 	add	r1, r1, #1
  70d574:	e2866001 	add	r6, r6, #1
  70d578:	eaffffed 	b	70d534 <di_drawOuter>

0070d57c <di_end>:
  70d57c:	e8bd01c0 	pop	{r6, r7, r8}
  70d580:	e49de004 	pop	{lr}		; (ldr lr, [sp], #4)
  70d584:	e1a0f00e 	mov	pc, lr

0070d588 <clearLineScreen>:
  70d588:	e52de004 	push	{lr}		; (str lr, [sp, #-4]!)
  70d58c:	e92d0060 	push	{r5, r6}
  70d590:	e2811001 	add	r1, r1, #1
  70d594:	e1a01281 	lsl	r1, r1, #5
  70d598:	e1a06001 	mov	r6, r1
  70d59c:	e2866064 	add	r6, r6, #100	; 0x64

0070d5a0 <drawY>:
  70d5a0:	e3a00d06 	mov	r0, #384	; 0x180
  70d5a4:	e2800d05 	add	r0, r0, #320	; 0x140
  70d5a8:	e1a05000 	mov	r5, r0
  70d5ac:	e3560d05 	cmp	r6, #320	; 0x140
  70d5b0:	ba00000d 	blt	70d5ec <finishShiftScreen>

0070d5b4 <drawX>:
  70d5b4:	e3550d06 	cmp	r5, #384	; 0x180
  70d5b8:	ba000009 	blt	70d5e4 <finishX>
  70d5bc:	e2466020 	sub	r6, r6, #32
  70d5c0:	e1a00005 	mov	r0, r5
  70d5c4:	e1a01006 	mov	r1, r6
  70d5c8:	eb000049 	bl	70d6f4 <GetPixel>
  70d5cc:	e2866020 	add	r6, r6, #32
  70d5d0:	e1a00005 	mov	r0, r5
  70d5d4:	e1a01006 	mov	r1, r6
  70d5d8:	eb000037 	bl	70d6bc <DrawPixel>
  70d5dc:	e2455001 	sub	r5, r5, #1
  70d5e0:	eafffff3 	b	70d5b4 <drawX>

0070d5e4 <finishX>:
  70d5e4:	e2466001 	sub	r6, r6, #1
  70d5e8:	eaffffec 	b	70d5a0 <drawY>

0070d5ec <finishShiftScreen>:
  70d5ec:	e8bd0060 	pop	{r5, r6}
  70d5f0:	e49de004 	pop	{lr}		; (ldr lr, [sp], #4)
  70d5f4:	e1a0f00e 	mov	pc, lr

0070d5f8 <drawCurrentScore>:
  70d5f8:	e52de004 	push	{lr}		; (str lr, [sp, #-4]!)
  70d5fc:	e92d00b0 	push	{r4, r5, r7}
  70d600:	e59f0124 	ldr	r0, [pc, #292]	; 70d72c <returnPixelColor+0x8>
  70d604:	e3a04000 	mov	r4, #0
  70d608:	e3a05000 	mov	r5, #0

0070d60c <getFirstDigit>:
  70d60c:	e3510064 	cmp	r1, #100	; 0x64
  70d610:	ba000002 	blt	70d620 <getSecondDigit>
  70d614:	e2411064 	sub	r1, r1, #100	; 0x64
  70d618:	e2844001 	add	r4, r4, #1
  70d61c:	eafffffa 	b	70d60c <getFirstDigit>

0070d620 <getSecondDigit>:
  70d620:	e351000a 	cmp	r1, #10
  70d624:	ba000002 	blt	70d634 <getThirdDigit>
  70d628:	e241100a 	sub	r1, r1, #10
  70d62c:	e2855001 	add	r5, r5, #1
  70d630:	eafffffa 	b	70d620 <getSecondDigit>

0070d634 <getThirdDigit>:
  70d634:	e2844030 	add	r4, r4, #48	; 0x30
  70d638:	e2855030 	add	r5, r5, #48	; 0x30
  70d63c:	e2811030 	add	r1, r1, #48	; 0x30
  70d640:	e5c04000 	strb	r4, [r0]
  70d644:	e5c05001 	strb	r5, [r0, #1]
  70d648:	e5c01002 	strb	r1, [r0, #2]
  70d64c:	e3a00e32 	mov	r0, #800	; 0x320
  70d650:	e3a0104b 	mov	r1, #75	; 0x4b
  70d654:	e3a02000 	mov	r2, #0
  70d658:	e59f30d0 	ldr	r3, [pc, #208]	; 70d730 <returnPixelColor+0xc>
  70d65c:	e3a0404b 	mov	r4, #75	; 0x4b
  70d660:	ebffff95 	bl	70d4bc <drawBlock>
  70d664:	e59f00c0 	ldr	r0, [pc, #192]	; 70d72c <returnPixelColor+0x8>
  70d668:	e3540030 	cmp	r4, #48	; 0x30
  70d66c:	0a000002 	beq	70d67c <drawTwo>
  70d670:	e1a03000 	mov	r3, r0
  70d674:	e3a07003 	mov	r7, #3
  70d678:	ea000008 	b	70d6a0 <writeScore>

0070d67c <drawTwo>:
  70d67c:	e3550030 	cmp	r5, #48	; 0x30
  70d680:	0a000003 	beq	70d694 <drawOne>
  70d684:	e2800001 	add	r0, r0, #1
  70d688:	e1a03000 	mov	r3, r0
  70d68c:	e3a07002 	mov	r7, #2
  70d690:	ea000002 	b	70d6a0 <writeScore>

0070d694 <drawOne>:
  70d694:	e2800002 	add	r0, r0, #2
  70d698:	e1a03000 	mov	r3, r0
  70d69c:	e3a07001 	mov	r7, #1

0070d6a0 <writeScore>:
  70d6a0:	e59f908c 	ldr	r9, [pc, #140]	; 70d734 <returnPixelColor+0x10>
  70d6a4:	e3a06064 	mov	r6, #100	; 0x64
  70d6a8:	e3e0a4ff 	mvn	sl, #-16777216	; 0xff000000
  70d6ac:	eb000023 	bl	70d740 <drawString>
  70d6b0:	e8bd00b0 	pop	{r4, r5, r7}
  70d6b4:	e49de004 	pop	{lr}		; (ldr lr, [sp], #4)
  70d6b8:	e1a0f00e 	mov	pc, lr

0070d6bc <DrawPixel>:
  70d6bc:	e52d4004 	push	{r4}		; (str r4, [sp, #-4]!)
  70d6c0:	e52d3004 	push	{r3}		; (str r3, [sp, #-4]!)
  70d6c4:	e59f306c 	ldr	r3, [pc, #108]	; 70d738 <returnPixelColor+0x14>
  70d6c8:	e1d330b0 	ldrh	r3, [r3]
  70d6cc:	e1520003 	cmp	r2, r3
  70d6d0:	0a000004 	beq	70d6e8 <dp_skipPrint>
  70d6d4:	e0804501 	add	r4, r0, r1, lsl #10
  70d6d8:	e1a04084 	lsl	r4, r4, #1
  70d6dc:	e59f0058 	ldr	r0, [pc, #88]	; 70d73c <returnPixelColor+0x18>
  70d6e0:	e5900000 	ldr	r0, [r0]
  70d6e4:	e18020b4 	strh	r2, [r0, r4]

0070d6e8 <dp_skipPrint>:
  70d6e8:	e49d3004 	pop	{r3}		; (ldr r3, [sp], #4)
  70d6ec:	e49d4004 	pop	{r4}		; (ldr r4, [sp], #4)
  70d6f0:	e12fff1e 	bx	lr

0070d6f4 <GetPixel>:
  70d6f4:	e52d4004 	push	{r4}		; (str r4, [sp, #-4]!)
  70d6f8:	e3500000 	cmp	r0, #0
  70d6fc:	ba000007 	blt	70d720 <setBlackPixel>
  70d700:	e3510000 	cmp	r1, #0
  70d704:	ba000005 	blt	70d720 <setBlackPixel>
  70d708:	e0804501 	add	r4, r0, r1, lsl #10
  70d70c:	e1a04084 	lsl	r4, r4, #1
  70d710:	e59f0024 	ldr	r0, [pc, #36]	; 70d73c <returnPixelColor+0x18>
  70d714:	e5900000 	ldr	r0, [r0]
  70d718:	e19020b4 	ldrh	r2, [r0, r4]
  70d71c:	ea000000 	b	70d724 <returnPixelColor>

0070d720 <setBlackPixel>:
  70d720:	e3a02000 	mov	r2, #0

0070d724 <returnPixelColor>:
  70d724:	e49d4004 	pop	{r4}		; (ldr r4, [sp], #4)
  70d728:	e12fff1e 	bx	lr
  70d72c:	00057302 	.word	0x00057302
  70d730:	000003b6 	.word	0x000003b6
  70d734:	00000352 	.word	0x00000352
  70d738:	00057300 	.word	0x00057300
  70d73c:	000572f0 	.word	0x000572f0

0070d740 <drawString>:
  70d740:	e1a0100e 	mov	r1, lr
  70d744:	e52d1004 	push	{r1}		; (str r1, [sp, #-4]!)
  70d748:	e3a08000 	mov	r8, #0

0070d74c <ds_drawStrLoop>:
  70d74c:	e1580007 	cmp	r8, r7
  70d750:	0a000005 	beq	70d76c <ds_endDrawLoop>
  70d754:	e5d30000 	ldrb	r0, [r3]
  70d758:	eb000005 	bl	70d774 <DrawChar>
  70d75c:	e2833001 	add	r3, r3, #1
  70d760:	e2888001 	add	r8, r8, #1
  70d764:	e2899014 	add	r9, r9, #20
  70d768:	eafffff7 	b	70d74c <ds_drawStrLoop>

0070d76c <ds_endDrawLoop>:
  70d76c:	e49d1004 	pop	{r1}		; (ldr r1, [sp], #4)
  70d770:	e1a0f001 	mov	pc, r1

0070d774 <DrawChar>:
  70d774:	e92d41f0 	push	{r4, r5, r6, r7, r8, lr}
  70d778:	e59f4044 	ldr	r4, [pc, #68]	; 70d7c4 <noPixel$+0x20>
  70d77c:	e0844200 	add	r4, r4, r0, lsl #4

0070d780 <charLoop$>:
  70d780:	e1a05009 	mov	r5, r9
  70d784:	e3a08001 	mov	r8, #1
  70d788:	e4d47001 	ldrb	r7, [r4], #1

0070d78c <rowLoop$>:
  70d78c:	e1170008 	tst	r7, r8
  70d790:	0a000003 	beq	70d7a4 <noPixel$>
  70d794:	e1a00005 	mov	r0, r5
  70d798:	e1a01006 	mov	r1, r6
  70d79c:	e1a0200a 	mov	r2, sl
  70d7a0:	ebffffc5 	bl	70d6bc <DrawPixel>

0070d7a4 <noPixel$>:
  70d7a4:	e2855002 	add	r5, r5, #2
  70d7a8:	e1a08088 	lsl	r8, r8, #1
  70d7ac:	e3180c01 	tst	r8, #256	; 0x100
  70d7b0:	0afffff5 	beq	70d78c <rowLoop$>
  70d7b4:	e2866002 	add	r6, r6, #2
  70d7b8:	e314000f 	tst	r4, #15
  70d7bc:	1affffef 	bne	70d780 <charLoop$>
  70d7c0:	e8bd81f0 	pop	{r4, r5, r6, r7, r8, pc}
  70d7c4:	00057310 	.word	0x00057310

0070d7c8 <WaitAndCheckSNES>:
  70d7c8:	e52de004 	push	{lr}		; (str lr, [sp, #-4]!)
  70d7cc:	e92d0240 	push	{r6, r9}
  70d7d0:	e3a09000 	mov	r9, #0
  70d7d4:	e3a06000 	mov	r6, #0

0070d7d8 <WaitAndCheck>:
  70d7d8:	e35600c8 	cmp	r6, #200	; 0xc8
  70d7dc:	0a000017 	beq	70d840 <FinishWaitCheck>
  70d7e0:	e3a01ffa 	mov	r1, #1000	; 0x3e8
  70d7e4:	eb000083 	bl	70d9f8 <Wait>
  70d7e8:	eb00003b 	bl	70d8dc <Read_Data>
  70d7ec:	e1590000 	cmp	r9, r0
  70d7f0:	0a000009 	beq	70d81c <noButtonInput>
  70d7f4:	e1a09000 	mov	r9, r0
  70d7f8:	e3a0100f 	mov	r1, #15
  70d7fc:	e1a01201 	lsl	r1, r1, #4
  70d800:	e1190001 	tst	r9, r1
  70d804:	0a000004 	beq	70d81c <noButtonInput>
  70d808:	e1a01009 	mov	r1, r9
  70d80c:	eb0009ec 	bl	70ffc4 <moveCurrentBlock>
  70d810:	e3a06000 	mov	r6, #0
  70d814:	e3500000 	cmp	r0, #0
  70d818:	0a000008 	beq	70d840 <FinishWaitCheck>

0070d81c <noButtonInput>:
  70d81c:	e3a01001 	mov	r1, #1
  70d820:	e1a01181 	lsl	r1, r1, #3
  70d824:	e1190001 	tst	r9, r1
  70d828:	0a000000 	beq	70d830 <continueCheck>
  70d82c:	eb00093e 	bl	70fd2c <runMainMenu>

0070d830 <continueCheck>:
  70d830:	e3a01ffa 	mov	r1, #1000	; 0x3e8
  70d834:	eb00006f 	bl	70d9f8 <Wait>
  70d838:	e2866001 	add	r6, r6, #1
  70d83c:	eaffffe5 	b	70d7d8 <WaitAndCheck>

0070d840 <FinishWaitCheck>:
  70d840:	e8bd0240 	pop	{r6, r9}
  70d844:	e49de004 	pop	{lr}		; (ldr lr, [sp], #4)
  70d848:	e1a0f00e 	mov	pc, lr

0070d84c <Set_Lines>:
  70d84c:	e52de004 	push	{lr}		; (str lr, [sp, #-4]!)
  70d850:	e3a00009 	mov	r0, #9
  70d854:	e3a01001 	mov	r1, #1
  70d858:	eb000007 	bl	70d87c <Init_GPIO>
  70d85c:	e3a0000a 	mov	r0, #10
  70d860:	e3a01000 	mov	r1, #0
  70d864:	eb000004 	bl	70d87c <Init_GPIO>
  70d868:	e3a0000b 	mov	r0, #11
  70d86c:	e3a01001 	mov	r1, #1
  70d870:	eb000001 	bl	70d87c <Init_GPIO>
  70d874:	e49de004 	pop	{lr}		; (ldr lr, [sp], #4)
  70d878:	e1a0f00e 	mov	pc, lr

0070d87c <Init_GPIO>:
  70d87c:	e52de004 	push	{lr}		; (str lr, [sp, #-4]!)
  70d880:	e92d03f0 	push	{r4, r5, r6, r7, r8, r9}
  70d884:	e1a04000 	mov	r4, r0
  70d888:	e1a05001 	mov	r5, r1
  70d88c:	e3a06000 	mov	r6, #0
  70d890:	e1a07004 	mov	r7, r4

0070d894 <getModTen>:
  70d894:	e254400a 	subs	r4, r4, #10
  70d898:	ba000002 	blt	70d8a8 <finishedMod>
  70d89c:	e2866001 	add	r6, r6, #1
  70d8a0:	e1a07004 	mov	r7, r4
  70d8a4:	eafffffa 	b	70d894 <getModTen>

0070d8a8 <finishedMod>:
  70d8a8:	e1a06106 	lsl	r6, r6, #2
  70d8ac:	e0877087 	add	r7, r7, r7, lsl #1
  70d8b0:	e59f01ac 	ldr	r0, [pc, #428]	; 70da64 <Read_SNES+0x38>
  70d8b4:	e0800006 	add	r0, r0, r6
  70d8b8:	e5901000 	ldr	r1, [r0]
  70d8bc:	e3a02007 	mov	r2, #7
  70d8c0:	e1c11712 	bic	r1, r1, r2, lsl r7
  70d8c4:	e1a02005 	mov	r2, r5
  70d8c8:	e1811712 	orr	r1, r1, r2, lsl r7
  70d8cc:	e5801000 	str	r1, [r0]
  70d8d0:	e8bd03f0 	pop	{r4, r5, r6, r7, r8, r9}
  70d8d4:	e49de004 	pop	{lr}		; (ldr lr, [sp], #4)
  70d8d8:	e1a0f00e 	mov	pc, lr

0070d8dc <Read_Data>:
  70d8dc:	e52de004 	push	{lr}		; (str lr, [sp, #-4]!)
  70d8e0:	e92d03f0 	push	{r4, r5, r6, r7, r8, r9}
  70d8e4:	e3a09000 	mov	r9, #0
  70d8e8:	e3a0101c 	mov	r1, #28
  70d8ec:	eb00002b 	bl	70d9a0 <Write_Clock>
  70d8f0:	e3a0101c 	mov	r1, #28
  70d8f4:	eb000034 	bl	70d9cc <Write_Latch>
  70d8f8:	e3a0100c 	mov	r1, #12
  70d8fc:	eb00003d 	bl	70d9f8 <Wait>
  70d900:	e3a01028 	mov	r1, #40	; 0x28
  70d904:	eb000030 	bl	70d9cc <Write_Latch>
  70d908:	e3a06000 	mov	r6, #0

0070d90c <pulseLoop>:
  70d90c:	e3560010 	cmp	r6, #16
  70d910:	aa00000d 	bge	70d94c <endPulseLoop>
  70d914:	e3a01006 	mov	r1, #6
  70d918:	eb000036 	bl	70d9f8 <Wait>
  70d91c:	e3a01028 	mov	r1, #40	; 0x28
  70d920:	eb00001e 	bl	70d9a0 <Write_Clock>
  70d924:	e3a01006 	mov	r1, #6
  70d928:	eb000032 	bl	70d9f8 <Wait>
  70d92c:	eb00003e 	bl	70da2c <Read_SNES>
  70d930:	e1a05000 	mov	r5, r0
  70d934:	e1a05615 	lsl	r5, r5, r6
  70d938:	e1899005 	orr	r9, r9, r5
  70d93c:	e2866001 	add	r6, r6, #1
  70d940:	e3a0101c 	mov	r1, #28
  70d944:	eb000015 	bl	70d9a0 <Write_Clock>
  70d948:	eaffffef 	b	70d90c <pulseLoop>

0070d94c <endPulseLoop>:
  70d94c:	e1a00009 	mov	r0, r9
  70d950:	e8bd03f0 	pop	{r4, r5, r6, r7, r8, r9}
  70d954:	e49de004 	pop	{lr}		; (ldr lr, [sp], #4)
  70d958:	e1a0f00e 	mov	pc, lr

0070d95c <Check_Buttons>:
  70d95c:	e52de004 	push	{lr}		; (str lr, [sp, #-4]!)
  70d960:	e92d03f0 	push	{r4, r5, r6, r7, r8, r9}
  70d964:	e1a09000 	mov	r9, r0
  70d968:	e1a04009 	mov	r4, r9
  70d96c:	e3a06000 	mov	r6, #0

0070d970 <checkButtonLoop>:
  70d970:	e3560010 	cmp	r6, #16
  70d974:	aa000006 	bge	70d994 <finishButtonLoop>
  70d978:	e3a05001 	mov	r5, #1
  70d97c:	e1a05615 	lsl	r5, r5, r6
  70d980:	e1140005 	tst	r4, r5
  70d984:	0a000000 	beq	70d98c <continueButtonLoop>
  70d988:	e12fff32 	blx	r2

0070d98c <continueButtonLoop>:
  70d98c:	e2866001 	add	r6, r6, #1
  70d990:	eafffff6 	b	70d970 <checkButtonLoop>

0070d994 <finishButtonLoop>:
  70d994:	e8bd03f0 	pop	{r4, r5, r6, r7, r8, r9}
  70d998:	e49de004 	pop	{lr}		; (ldr lr, [sp], #4)
  70d99c:	e1a0f00e 	mov	pc, lr

0070d9a0 <Write_Clock>:
  70d9a0:	e52de004 	push	{lr}		; (str lr, [sp, #-4]!)
  70d9a4:	e52d5004 	push	{r5}		; (str r5, [sp, #-4]!)
  70d9a8:	e1a05001 	mov	r5, r1
  70d9ac:	e59f00b0 	ldr	r0, [pc, #176]	; 70da64 <Read_SNES+0x38>
  70d9b0:	e0800005 	add	r0, r0, r5
  70d9b4:	e3a03001 	mov	r3, #1
  70d9b8:	e1a03583 	lsl	r3, r3, #11
  70d9bc:	e5803000 	str	r3, [r0]
  70d9c0:	e49d5004 	pop	{r5}		; (ldr r5, [sp], #4)
  70d9c4:	e49de004 	pop	{lr}		; (ldr lr, [sp], #4)
  70d9c8:	e1a0f00e 	mov	pc, lr

0070d9cc <Write_Latch>:
  70d9cc:	e52de004 	push	{lr}		; (str lr, [sp, #-4]!)
  70d9d0:	e52d5004 	push	{r5}		; (str r5, [sp, #-4]!)
  70d9d4:	e1a05001 	mov	r5, r1
  70d9d8:	e59f0084 	ldr	r0, [pc, #132]	; 70da64 <Read_SNES+0x38>
  70d9dc:	e0800005 	add	r0, r0, r5
  70d9e0:	e3a03001 	mov	r3, #1
  70d9e4:	e1a03483 	lsl	r3, r3, #9
  70d9e8:	e5803000 	str	r3, [r0]
  70d9ec:	e49d5004 	pop	{r5}		; (ldr r5, [sp], #4)
  70d9f0:	e49de004 	pop	{lr}		; (ldr lr, [sp], #4)
  70d9f4:	e1a0f00e 	mov	pc, lr

0070d9f8 <Wait>:
  70d9f8:	e52de004 	push	{lr}		; (str lr, [sp, #-4]!)
  70d9fc:	e52d4004 	push	{r4}		; (str r4, [sp, #-4]!)
  70da00:	e59f0060 	ldr	r0, [pc, #96]	; 70da68 <Read_SNES+0x3c>
  70da04:	e2800004 	add	r0, r0, #4
  70da08:	e5903000 	ldr	r3, [r0]
  70da0c:	e0834001 	add	r4, r3, r1

0070da10 <cycleLoop>:
  70da10:	e5903000 	ldr	r3, [r0]
  70da14:	e1530004 	cmp	r3, r4
  70da18:	aa000000 	bge	70da20 <cycleFinished>
  70da1c:	eafffffb 	b	70da10 <cycleLoop>

0070da20 <cycleFinished>:
  70da20:	e49d4004 	pop	{r4}		; (ldr r4, [sp], #4)
  70da24:	e49de004 	pop	{lr}		; (ldr lr, [sp], #4)
  70da28:	e1a0f00e 	mov	pc, lr

0070da2c <Read_SNES>:
  70da2c:	e52de004 	push	{lr}		; (str lr, [sp, #-4]!)
  70da30:	e92d0030 	push	{r4, r5}
  70da34:	e59f0028 	ldr	r0, [pc, #40]	; 70da64 <Read_SNES+0x38>
  70da38:	e2800034 	add	r0, r0, #52	; 0x34
  70da3c:	e5904000 	ldr	r4, [r0]
  70da40:	e3a03001 	mov	r3, #1
  70da44:	e1a03503 	lsl	r3, r3, #10
  70da48:	e1130004 	tst	r3, r4
  70da4c:	03a05001 	moveq	r5, #1
  70da50:	13a05000 	movne	r5, #0
  70da54:	e1a00005 	mov	r0, r5
  70da58:	e8bd0030 	pop	{r4, r5}
  70da5c:	e49de004 	pop	{lr}		; (ldr lr, [sp], #4)
  70da60:	e1a0f00e 	mov	pc, lr
  70da64:	3f200000 	.word	0x3f200000
  70da68:	3f003000 	.word	0x3f003000

0070da6c <rotate4_AB>:
  70da6c:	e52de004 	push	{lr}		; (str lr, [sp, #-4]!)
  70da70:	e59f0788 	ldr	r0, [pc, #1928]	; 70e200 <noMove_DA+0x8>
  70da74:	e59f2788 	ldr	r2, [pc, #1928]	; 70e204 <noMove_DA+0xc>
  70da78:	e5d22000 	ldrb	r2, [r2]
  70da7c:	e1a01002 	mov	r1, r2
  70da80:	e2422001 	sub	r2, r2, #1
  70da84:	e282200a 	add	r2, r2, #10
  70da88:	ebfff537 	bl	70af6c <checkIfDifferentLine>
  70da8c:	e3530000 	cmp	r3, #0
  70da90:	0a000072 	beq	70dc60 <finishTester>
  70da94:	e35200c7 	cmp	r2, #199	; 0xc7
  70da98:	ca000070 	bgt	70dc60 <finishTester>
  70da9c:	e3520000 	cmp	r2, #0
  70daa0:	ba00006e 	blt	70dc60 <finishTester>
  70daa4:	e7d01002 	ldrb	r1, [r0, r2]
  70daa8:	e3510001 	cmp	r1, #1
  70daac:	aa00006b 	bge	70dc60 <finishTester>
  70dab0:	e59f0748 	ldr	r0, [pc, #1864]	; 70e200 <noMove_DA+0x8>
  70dab4:	e59f274c 	ldr	r2, [pc, #1868]	; 70e208 <noMove_DA+0x10>
  70dab8:	e5d22000 	ldrb	r2, [r2]
  70dabc:	e3a01000 	mov	r1, #0
  70dac0:	e7c01002 	strb	r1, [r0, r2]
  70dac4:	e59f0734 	ldr	r0, [pc, #1844]	; 70e200 <noMove_DA+0x8>
  70dac8:	e59f273c 	ldr	r2, [pc, #1852]	; 70e20c <noMove_DA+0x14>
  70dacc:	e5d22000 	ldrb	r2, [r2]
  70dad0:	e3a01000 	mov	r1, #0
  70dad4:	e7c01002 	strb	r1, [r0, r2]
  70dad8:	e59f0720 	ldr	r0, [pc, #1824]	; 70e200 <noMove_DA+0x8>
  70dadc:	e59f272c 	ldr	r2, [pc, #1836]	; 70e210 <noMove_DA+0x18>
  70dae0:	e5d22000 	ldrb	r2, [r2]
  70dae4:	e3a01000 	mov	r1, #0
  70dae8:	e7c01002 	strb	r1, [r0, r2]
  70daec:	e59f070c 	ldr	r0, [pc, #1804]	; 70e200 <noMove_DA+0x8>
  70daf0:	e59f270c 	ldr	r2, [pc, #1804]	; 70e204 <noMove_DA+0xc>
  70daf4:	e5d22000 	ldrb	r2, [r2]
  70daf8:	e3a01000 	mov	r1, #0
  70dafc:	e7c01002 	strb	r1, [r0, r2]
  70db00:	eb000844 	bl	70fc18 <drawSquareBlock>
  70db04:	e59f06fc 	ldr	r0, [pc, #1788]	; 70e208 <noMove_DA+0x10>
  70db08:	e59f06fc 	ldr	r0, [pc, #1788]	; 70e20c <noMove_DA+0x14>
  70db0c:	e5d02000 	ldrb	r2, [r0]
  70db10:	e2822001 	add	r2, r2, #1
  70db14:	e5c02000 	strb	r2, [r0]
  70db18:	e59f06f0 	ldr	r0, [pc, #1776]	; 70e210 <noMove_DA+0x18>
  70db1c:	e5d02000 	ldrb	r2, [r0]
  70db20:	e2822001 	add	r2, r2, #1
  70db24:	e5c02000 	strb	r2, [r0]
  70db28:	e59f06d4 	ldr	r0, [pc, #1748]	; 70e204 <noMove_DA+0xc>
  70db2c:	e5d02000 	ldrb	r2, [r0]
  70db30:	e2422001 	sub	r2, r2, #1
  70db34:	e282200a 	add	r2, r2, #10
  70db38:	e5c02000 	strb	r2, [r0]
  70db3c:	e59f36d0 	ldr	r3, [pc, #1744]	; 70e214 <noMove_DA+0x1c>
  70db40:	e5933000 	ldr	r3, [r3]
  70db44:	e59f26b4 	ldr	r2, [pc, #1716]	; 70e200 <noMove_DA+0x8>
  70db48:	e59f06b8 	ldr	r0, [pc, #1720]	; 70e208 <noMove_DA+0x10>
  70db4c:	e5d01000 	ldrb	r1, [r0]
  70db50:	e7c23001 	strb	r3, [r2, r1]
  70db54:	e59f06b0 	ldr	r0, [pc, #1712]	; 70e20c <noMove_DA+0x14>
  70db58:	e5d01000 	ldrb	r1, [r0]
  70db5c:	e7c23001 	strb	r3, [r2, r1]
  70db60:	e59f06a8 	ldr	r0, [pc, #1704]	; 70e210 <noMove_DA+0x18>
  70db64:	e5d01000 	ldrb	r1, [r0]
  70db68:	e7c23001 	strb	r3, [r2, r1]
  70db6c:	e59f0690 	ldr	r0, [pc, #1680]	; 70e204 <noMove_DA+0xc>
  70db70:	e5d01000 	ldrb	r1, [r0]
  70db74:	e7c23001 	strb	r3, [r2, r1]
  70db78:	e59f0698 	ldr	r0, [pc, #1688]	; 70e218 <noMove_DA+0x20>
  70db7c:	e3a010ff 	mov	r1, #255	; 0xff
  70db80:	e5c01000 	strb	r1, [r0]
  70db84:	e3a010ff 	mov	r1, #255	; 0xff
  70db88:	e5c01001 	strb	r1, [r0, #1]
  70db8c:	e59f167c 	ldr	r1, [pc, #1660]	; 70e210 <noMove_DA+0x18>
  70db90:	e5d11000 	ldrb	r1, [r1]
  70db94:	e5c01002 	strb	r1, [r0, #2]
  70db98:	e59f1664 	ldr	r1, [pc, #1636]	; 70e204 <noMove_DA+0xc>
  70db9c:	e5d11000 	ldrb	r1, [r1]
  70dba0:	e5c01003 	strb	r1, [r0, #3]
  70dba4:	e59f0670 	ldr	r0, [pc, #1648]	; 70e21c <noMove_DA+0x24>
  70dba8:	e59f1658 	ldr	r1, [pc, #1624]	; 70e208 <noMove_DA+0x10>
  70dbac:	e5d11000 	ldrb	r1, [r1]
  70dbb0:	e5c01000 	strb	r1, [r0]
  70dbb4:	e59f1650 	ldr	r1, [pc, #1616]	; 70e20c <noMove_DA+0x14>
  70dbb8:	e5d11000 	ldrb	r1, [r1]
  70dbbc:	e5c01001 	strb	r1, [r0, #1]
  70dbc0:	e3a010ff 	mov	r1, #255	; 0xff
  70dbc4:	e5c01002 	strb	r1, [r0, #2]
  70dbc8:	e59f1634 	ldr	r1, [pc, #1588]	; 70e204 <noMove_DA+0xc>
  70dbcc:	e5d11000 	ldrb	r1, [r1]
  70dbd0:	e5c01003 	strb	r1, [r0, #3]
  70dbd4:	e59f0644 	ldr	r0, [pc, #1604]	; 70e220 <noMove_DA+0x28>
  70dbd8:	e59f1628 	ldr	r1, [pc, #1576]	; 70e208 <noMove_DA+0x10>
  70dbdc:	e5d11000 	ldrb	r1, [r1]
  70dbe0:	e5c01000 	strb	r1, [r0]
  70dbe4:	e3a010ff 	mov	r1, #255	; 0xff
  70dbe8:	e5c01001 	strb	r1, [r0, #1]
  70dbec:	e59f161c 	ldr	r1, [pc, #1564]	; 70e210 <noMove_DA+0x18>
  70dbf0:	e5d11000 	ldrb	r1, [r1]
  70dbf4:	e5c01002 	strb	r1, [r0, #2]
  70dbf8:	e59f1604 	ldr	r1, [pc, #1540]	; 70e204 <noMove_DA+0xc>
  70dbfc:	e5d11000 	ldrb	r1, [r1]
  70dc00:	e5c01003 	strb	r1, [r0, #3]
  70dc04:	e59f3618 	ldr	r3, [pc, #1560]	; 70e224 <noMove_DA+0x2c>
  70dc08:	e59f2618 	ldr	r2, [pc, #1560]	; 70e228 <noMove_DA+0x30>
  70dc0c:	e5823000 	str	r3, [r2]
  70dc10:	e59f3614 	ldr	r3, [pc, #1556]	; 70e22c <noMove_DA+0x34>
  70dc14:	e59f2614 	ldr	r2, [pc, #1556]	; 70e230 <noMove_DA+0x38>
  70dc18:	e5823000 	str	r3, [r2]
  70dc1c:	e3a03040 	mov	r3, #64	; 0x40
  70dc20:	e59f260c 	ldr	r2, [pc, #1548]	; 70e234 <noMove_DA+0x3c>
  70dc24:	e5c23000 	strb	r3, [r2]
  70dc28:	e3a03060 	mov	r3, #96	; 0x60
  70dc2c:	e59f5604 	ldr	r5, [pc, #1540]	; 70e238 <noMove_DA+0x40>
  70dc30:	e5c53000 	strb	r3, [r5]
  70dc34:	e59f0600 	ldr	r0, [pc, #1536]	; 70e23c <noMove_DA+0x44>
  70dc38:	e5d01000 	ldrb	r1, [r0]
  70dc3c:	e2811001 	add	r1, r1, #1
  70dc40:	e5c01000 	strb	r1, [r0]
  70dc44:	e59f05f4 	ldr	r0, [pc, #1524]	; 70e240 <noMove_DA+0x48>
  70dc48:	e3a01002 	mov	r1, #2
  70dc4c:	e5c01000 	strb	r1, [r0]
  70dc50:	e59f05ec 	ldr	r0, [pc, #1516]	; 70e244 <noMove_DA+0x4c>
  70dc54:	e3a01001 	mov	r1, #1
  70dc58:	e5c01000 	strb	r1, [r0]
  70dc5c:	eb0007ed 	bl	70fc18 <drawSquareBlock>

0070dc60 <finishTester>:
  70dc60:	e49de004 	pop	{lr}		; (ldr lr, [sp], #4)
  70dc64:	e1a0f00e 	mov	pc, lr

0070dc68 <rotate4_BC>:
  70dc68:	e52de004 	push	{lr}		; (str lr, [sp, #-4]!)
  70dc6c:	e59f058c 	ldr	r0, [pc, #1420]	; 70e200 <noMove_DA+0x8>
  70dc70:	e59f2590 	ldr	r2, [pc, #1424]	; 70e208 <noMove_DA+0x10>
  70dc74:	e5d22000 	ldrb	r2, [r2]
  70dc78:	e1a01002 	mov	r1, r2
  70dc7c:	e282200a 	add	r2, r2, #10
  70dc80:	e2422001 	sub	r2, r2, #1
  70dc84:	ebfff4b8 	bl	70af6c <checkIfDifferentLine>
  70dc88:	e3530000 	cmp	r3, #0
  70dc8c:	0a000068 	beq	70de34 <noMove_BC>
  70dc90:	e35200c7 	cmp	r2, #199	; 0xc7
  70dc94:	ca000066 	bgt	70de34 <noMove_BC>
  70dc98:	e3520000 	cmp	r2, #0
  70dc9c:	ba000064 	blt	70de34 <noMove_BC>
  70dca0:	e7d01002 	ldrb	r1, [r0, r2]
  70dca4:	e3510001 	cmp	r1, #1
  70dca8:	aa000061 	bge	70de34 <noMove_BC>
  70dcac:	e59f054c 	ldr	r0, [pc, #1356]	; 70e200 <noMove_DA+0x8>
  70dcb0:	e59f2550 	ldr	r2, [pc, #1360]	; 70e208 <noMove_DA+0x10>
  70dcb4:	e5d22000 	ldrb	r2, [r2]
  70dcb8:	e3a01000 	mov	r1, #0
  70dcbc:	e7c01002 	strb	r1, [r0, r2]
  70dcc0:	e59f0538 	ldr	r0, [pc, #1336]	; 70e200 <noMove_DA+0x8>
  70dcc4:	e59f2540 	ldr	r2, [pc, #1344]	; 70e20c <noMove_DA+0x14>
  70dcc8:	e5d22000 	ldrb	r2, [r2]
  70dccc:	e3a01000 	mov	r1, #0
  70dcd0:	e7c01002 	strb	r1, [r0, r2]
  70dcd4:	e59f0524 	ldr	r0, [pc, #1316]	; 70e200 <noMove_DA+0x8>
  70dcd8:	e59f2530 	ldr	r2, [pc, #1328]	; 70e210 <noMove_DA+0x18>
  70dcdc:	e5d22000 	ldrb	r2, [r2]
  70dce0:	e3a01000 	mov	r1, #0
  70dce4:	e7c01002 	strb	r1, [r0, r2]
  70dce8:	e59f0510 	ldr	r0, [pc, #1296]	; 70e200 <noMove_DA+0x8>
  70dcec:	e59f2510 	ldr	r2, [pc, #1296]	; 70e204 <noMove_DA+0xc>
  70dcf0:	e5d22000 	ldrb	r2, [r2]
  70dcf4:	e3a01000 	mov	r1, #0
  70dcf8:	e7c01002 	strb	r1, [r0, r2]
  70dcfc:	eb0007c5 	bl	70fc18 <drawSquareBlock>
  70dd00:	e59f0500 	ldr	r0, [pc, #1280]	; 70e208 <noMove_DA+0x10>
  70dd04:	e5d02000 	ldrb	r2, [r0]
  70dd08:	e282200a 	add	r2, r2, #10
  70dd0c:	e2422001 	sub	r2, r2, #1
  70dd10:	e5c02000 	strb	r2, [r0]
  70dd14:	e59f34f8 	ldr	r3, [pc, #1272]	; 70e214 <noMove_DA+0x1c>
  70dd18:	e5d33000 	ldrb	r3, [r3]
  70dd1c:	e59f24dc 	ldr	r2, [pc, #1244]	; 70e200 <noMove_DA+0x8>
  70dd20:	e59f04e0 	ldr	r0, [pc, #1248]	; 70e208 <noMove_DA+0x10>
  70dd24:	e5d01000 	ldrb	r1, [r0]
  70dd28:	e7c23001 	strb	r3, [r2, r1]
  70dd2c:	e59f04d8 	ldr	r0, [pc, #1240]	; 70e20c <noMove_DA+0x14>
  70dd30:	e5d01000 	ldrb	r1, [r0]
  70dd34:	e7c23001 	strb	r3, [r2, r1]
  70dd38:	e59f04d0 	ldr	r0, [pc, #1232]	; 70e210 <noMove_DA+0x18>
  70dd3c:	e5d01000 	ldrb	r1, [r0]
  70dd40:	e7c23001 	strb	r3, [r2, r1]
  70dd44:	e59f04b8 	ldr	r0, [pc, #1208]	; 70e204 <noMove_DA+0xc>
  70dd48:	e5d01000 	ldrb	r1, [r0]
  70dd4c:	e7c23001 	strb	r3, [r2, r1]
  70dd50:	e59f04c0 	ldr	r0, [pc, #1216]	; 70e218 <noMove_DA+0x20>
  70dd54:	e59f34ac 	ldr	r3, [pc, #1196]	; 70e208 <noMove_DA+0x10>
  70dd58:	e5d31000 	ldrb	r1, [r3]
  70dd5c:	e5c01000 	strb	r1, [r0]
  70dd60:	e3a010ff 	mov	r1, #255	; 0xff
  70dd64:	e5c01001 	strb	r1, [r0, #1]
  70dd68:	e59f34a0 	ldr	r3, [pc, #1184]	; 70e210 <noMove_DA+0x18>
  70dd6c:	e5d31000 	ldrb	r1, [r3]
  70dd70:	e5c01002 	strb	r1, [r0, #2]
  70dd74:	e59f3488 	ldr	r3, [pc, #1160]	; 70e204 <noMove_DA+0xc>
  70dd78:	e5d31000 	ldrb	r1, [r3]
  70dd7c:	e5c01003 	strb	r1, [r0, #3]
  70dd80:	e59f0494 	ldr	r0, [pc, #1172]	; 70e21c <noMove_DA+0x24>
  70dd84:	e59f347c 	ldr	r3, [pc, #1148]	; 70e208 <noMove_DA+0x10>
  70dd88:	e5d31000 	ldrb	r1, [r3]
  70dd8c:	e5c01000 	strb	r1, [r0]
  70dd90:	e3a010ff 	mov	r1, #255	; 0xff
  70dd94:	e5c01001 	strb	r1, [r0, #1]
  70dd98:	e3a010ff 	mov	r1, #255	; 0xff
  70dd9c:	e5c01002 	strb	r1, [r0, #2]
  70dda0:	e59f345c 	ldr	r3, [pc, #1116]	; 70e204 <noMove_DA+0xc>
  70dda4:	e5d31000 	ldrb	r1, [r3]
  70dda8:	e5c01003 	strb	r1, [r0, #3]
  70ddac:	e59f046c 	ldr	r0, [pc, #1132]	; 70e220 <noMove_DA+0x28>
  70ddb0:	e59f3458 	ldr	r3, [pc, #1112]	; 70e210 <noMove_DA+0x18>
  70ddb4:	e5d31000 	ldrb	r1, [r3]
  70ddb8:	e5c01000 	strb	r1, [r0]
  70ddbc:	e3a010ff 	mov	r1, #255	; 0xff
  70ddc0:	e5c01001 	strb	r1, [r0, #1]
  70ddc4:	e3a010ff 	mov	r1, #255	; 0xff
  70ddc8:	e5c01002 	strb	r1, [r0, #2]
  70ddcc:	e59f3430 	ldr	r3, [pc, #1072]	; 70e204 <noMove_DA+0xc>
  70ddd0:	e5d31000 	ldrb	r1, [r3]
  70ddd4:	e5c01003 	strb	r1, [r0, #3]
  70ddd8:	e59f3468 	ldr	r3, [pc, #1128]	; 70e248 <noMove_DA+0x50>
  70dddc:	e59f2444 	ldr	r2, [pc, #1092]	; 70e228 <noMove_DA+0x30>
  70dde0:	e5823000 	str	r3, [r2]
  70dde4:	e59f3460 	ldr	r3, [pc, #1120]	; 70e24c <noMove_DA+0x54>
  70dde8:	e59f2440 	ldr	r2, [pc, #1088]	; 70e230 <noMove_DA+0x38>
  70ddec:	e5823000 	str	r3, [r2]
  70ddf0:	e3a03060 	mov	r3, #96	; 0x60
  70ddf4:	e59f2438 	ldr	r2, [pc, #1080]	; 70e234 <noMove_DA+0x3c>
  70ddf8:	e5c23000 	strb	r3, [r2]
  70ddfc:	e3a03040 	mov	r3, #64	; 0x40
  70de00:	e59f5430 	ldr	r5, [pc, #1072]	; 70e238 <noMove_DA+0x40>
  70de04:	e5c53000 	strb	r3, [r5]
  70de08:	e59f042c 	ldr	r0, [pc, #1068]	; 70e23c <noMove_DA+0x44>
  70de0c:	e5d01000 	ldrb	r1, [r0]
  70de10:	e2411001 	sub	r1, r1, #1
  70de14:	e5c01000 	strb	r1, [r0]
  70de18:	e59f0420 	ldr	r0, [pc, #1056]	; 70e240 <noMove_DA+0x48>
  70de1c:	e3a01003 	mov	r1, #3
  70de20:	e5c01000 	strb	r1, [r0]
  70de24:	e59f0418 	ldr	r0, [pc, #1048]	; 70e244 <noMove_DA+0x4c>
  70de28:	e3a01002 	mov	r1, #2
  70de2c:	e5c01000 	strb	r1, [r0]
  70de30:	eb000778 	bl	70fc18 <drawSquareBlock>

0070de34 <noMove_BC>:
  70de34:	e49de004 	pop	{lr}		; (ldr lr, [sp], #4)
  70de38:	e1a0f00e 	mov	pc, lr

0070de3c <rotate4_CD>:
  70de3c:	e52de004 	push	{lr}		; (str lr, [sp, #-4]!)
  70de40:	e59f03b8 	ldr	r0, [pc, #952]	; 70e200 <noMove_DA+0x8>
  70de44:	e59f23bc 	ldr	r2, [pc, #956]	; 70e208 <noMove_DA+0x10>
  70de48:	e5d22000 	ldrb	r2, [r2]
  70de4c:	e1a01002 	mov	r1, r2
  70de50:	e242200a 	sub	r2, r2, #10
  70de54:	e2822001 	add	r2, r2, #1
  70de58:	ebfff443 	bl	70af6c <checkIfDifferentLine>
  70de5c:	e3530000 	cmp	r3, #0
  70de60:	0a000071 	beq	70e02c <noMove_CD>
  70de64:	e35200c7 	cmp	r2, #199	; 0xc7
  70de68:	ca00006f 	bgt	70e02c <noMove_CD>
  70de6c:	e3520000 	cmp	r2, #0
  70de70:	ba00006d 	blt	70e02c <noMove_CD>
  70de74:	e7d01002 	ldrb	r1, [r0, r2]
  70de78:	e3510001 	cmp	r1, #1
  70de7c:	aa00006a 	bge	70e02c <noMove_CD>
  70de80:	e59f0378 	ldr	r0, [pc, #888]	; 70e200 <noMove_DA+0x8>
  70de84:	e59f237c 	ldr	r2, [pc, #892]	; 70e208 <noMove_DA+0x10>
  70de88:	e5d22000 	ldrb	r2, [r2]
  70de8c:	e3a01000 	mov	r1, #0
  70de90:	e7c01002 	strb	r1, [r0, r2]
  70de94:	e59f0364 	ldr	r0, [pc, #868]	; 70e200 <noMove_DA+0x8>
  70de98:	e59f236c 	ldr	r2, [pc, #876]	; 70e20c <noMove_DA+0x14>
  70de9c:	e5d22000 	ldrb	r2, [r2]
  70dea0:	e3a01000 	mov	r1, #0
  70dea4:	e7c01002 	strb	r1, [r0, r2]
  70dea8:	e59f0350 	ldr	r0, [pc, #848]	; 70e200 <noMove_DA+0x8>
  70deac:	e59f235c 	ldr	r2, [pc, #860]	; 70e210 <noMove_DA+0x18>
  70deb0:	e5d22000 	ldrb	r2, [r2]
  70deb4:	e3a01000 	mov	r1, #0
  70deb8:	e7c01002 	strb	r1, [r0, r2]
  70debc:	e59f033c 	ldr	r0, [pc, #828]	; 70e200 <noMove_DA+0x8>
  70dec0:	e59f233c 	ldr	r2, [pc, #828]	; 70e204 <noMove_DA+0xc>
  70dec4:	e5d22000 	ldrb	r2, [r2]
  70dec8:	e3a01000 	mov	r1, #0
  70decc:	e7c01002 	strb	r1, [r0, r2]
  70ded0:	eb000750 	bl	70fc18 <drawSquareBlock>
  70ded4:	e59f032c 	ldr	r0, [pc, #812]	; 70e208 <noMove_DA+0x10>
  70ded8:	e5d02000 	ldrb	r2, [r0]
  70dedc:	e242200a 	sub	r2, r2, #10
  70dee0:	e2822001 	add	r2, r2, #1
  70dee4:	e5c02000 	strb	r2, [r0]
  70dee8:	e59f031c 	ldr	r0, [pc, #796]	; 70e20c <noMove_DA+0x14>
  70deec:	e5d02000 	ldrb	r2, [r0]
  70def0:	e2422001 	sub	r2, r2, #1
  70def4:	e5c02000 	strb	r2, [r0]
  70def8:	e59f0310 	ldr	r0, [pc, #784]	; 70e210 <noMove_DA+0x18>
  70defc:	e5d02000 	ldrb	r2, [r0]
  70df00:	e2422001 	sub	r2, r2, #1
  70df04:	e5c02000 	strb	r2, [r0]
  70df08:	e59f02f4 	ldr	r0, [pc, #756]	; 70e204 <noMove_DA+0xc>
  70df0c:	e5d02000 	ldrb	r2, [r0]
  70df10:	e59f32fc 	ldr	r3, [pc, #764]	; 70e214 <noMove_DA+0x1c>
  70df14:	e5d33000 	ldrb	r3, [r3]
  70df18:	e59f22e0 	ldr	r2, [pc, #736]	; 70e200 <noMove_DA+0x8>
  70df1c:	e59f02e4 	ldr	r0, [pc, #740]	; 70e208 <noMove_DA+0x10>
  70df20:	e5d01000 	ldrb	r1, [r0]
  70df24:	e7c23001 	strb	r3, [r2, r1]
  70df28:	e59f02dc 	ldr	r0, [pc, #732]	; 70e20c <noMove_DA+0x14>
  70df2c:	e5d01000 	ldrb	r1, [r0]
  70df30:	e7c23001 	strb	r3, [r2, r1]
  70df34:	e59f02d4 	ldr	r0, [pc, #724]	; 70e210 <noMove_DA+0x18>
  70df38:	e5d01000 	ldrb	r1, [r0]
  70df3c:	e7c23001 	strb	r3, [r2, r1]
  70df40:	e59f02bc 	ldr	r0, [pc, #700]	; 70e204 <noMove_DA+0xc>
  70df44:	e5d01000 	ldrb	r1, [r0]
  70df48:	e7c23001 	strb	r3, [r2, r1]
  70df4c:	e59f02c4 	ldr	r0, [pc, #708]	; 70e218 <noMove_DA+0x20>
  70df50:	e3a010ff 	mov	r1, #255	; 0xff
  70df54:	e5c01000 	strb	r1, [r0]
  70df58:	e59f32ac 	ldr	r3, [pc, #684]	; 70e20c <noMove_DA+0x14>
  70df5c:	e5d31000 	ldrb	r1, [r3]
  70df60:	e5c01001 	strb	r1, [r0, #1]
  70df64:	e3a010ff 	mov	r1, #255	; 0xff
  70df68:	e5c01002 	strb	r1, [r0, #2]
  70df6c:	e59f3290 	ldr	r3, [pc, #656]	; 70e204 <noMove_DA+0xc>
  70df70:	e5d31000 	ldrb	r1, [r3]
  70df74:	e5c01003 	strb	r1, [r0, #3]
  70df78:	e59f029c 	ldr	r0, [pc, #668]	; 70e21c <noMove_DA+0x24>
  70df7c:	e59f3284 	ldr	r3, [pc, #644]	; 70e208 <noMove_DA+0x10>
  70df80:	e5d31000 	ldrb	r1, [r3]
  70df84:	e5c01000 	strb	r1, [r0]
  70df88:	e59f327c 	ldr	r3, [pc, #636]	; 70e20c <noMove_DA+0x14>
  70df8c:	e5d31000 	ldrb	r1, [r3]
  70df90:	e5c01001 	strb	r1, [r0, #1]
  70df94:	e3a010ff 	mov	r1, #255	; 0xff
  70df98:	e5c01002 	strb	r1, [r0, #2]
  70df9c:	e59f3260 	ldr	r3, [pc, #608]	; 70e204 <noMove_DA+0xc>
  70dfa0:	e5d31000 	ldrb	r1, [r3]
  70dfa4:	e5c01003 	strb	r1, [r0, #3]
  70dfa8:	e59f0270 	ldr	r0, [pc, #624]	; 70e220 <noMove_DA+0x28>
  70dfac:	e59f3254 	ldr	r3, [pc, #596]	; 70e208 <noMove_DA+0x10>
  70dfb0:	e5d31000 	ldrb	r1, [r3]
  70dfb4:	e5c01000 	strb	r1, [r0]
  70dfb8:	e3a010ff 	mov	r1, #255	; 0xff
  70dfbc:	e5c01001 	strb	r1, [r0, #1]
  70dfc0:	e59f3248 	ldr	r3, [pc, #584]	; 70e210 <noMove_DA+0x18>
  70dfc4:	e5d31000 	ldrb	r1, [r3]
  70dfc8:	e5c01002 	strb	r1, [r0, #2]
  70dfcc:	e59f3230 	ldr	r3, [pc, #560]	; 70e204 <noMove_DA+0xc>
  70dfd0:	e5d31000 	ldrb	r1, [r3]
  70dfd4:	e5c01003 	strb	r1, [r0, #3]
  70dfd8:	e59f3270 	ldr	r3, [pc, #624]	; 70e250 <noMove_DA+0x58>
  70dfdc:	e59f2244 	ldr	r2, [pc, #580]	; 70e228 <noMove_DA+0x30>
  70dfe0:	e5823000 	str	r3, [r2]
  70dfe4:	e59f3268 	ldr	r3, [pc, #616]	; 70e254 <noMove_DA+0x5c>
  70dfe8:	e59f2240 	ldr	r2, [pc, #576]	; 70e230 <noMove_DA+0x38>
  70dfec:	e5823000 	str	r3, [r2]
  70dff0:	e3a03040 	mov	r3, #64	; 0x40
  70dff4:	e59f2238 	ldr	r2, [pc, #568]	; 70e234 <noMove_DA+0x3c>
  70dff8:	e5c23000 	strb	r3, [r2]
  70dffc:	e3a03060 	mov	r3, #96	; 0x60
  70e000:	e59f5230 	ldr	r5, [pc, #560]	; 70e238 <noMove_DA+0x40>
  70e004:	e5c53000 	strb	r3, [r5]
  70e008:	e59f022c 	ldr	r0, [pc, #556]	; 70e23c <noMove_DA+0x44>
  70e00c:	e5d01000 	ldrb	r1, [r0]
  70e010:	e59f0228 	ldr	r0, [pc, #552]	; 70e240 <noMove_DA+0x48>
  70e014:	e3a01002 	mov	r1, #2
  70e018:	e5c01000 	strb	r1, [r0]
  70e01c:	e59f0220 	ldr	r0, [pc, #544]	; 70e244 <noMove_DA+0x4c>
  70e020:	e3a01003 	mov	r1, #3
  70e024:	e5c01000 	strb	r1, [r0]
  70e028:	eb0006fa 	bl	70fc18 <drawSquareBlock>

0070e02c <noMove_CD>:
  70e02c:	e49de004 	pop	{lr}		; (ldr lr, [sp], #4)
  70e030:	e1a0f00e 	mov	pc, lr

0070e034 <rotate4_DA>:
  70e034:	e52de004 	push	{lr}		; (str lr, [sp, #-4]!)
  70e038:	e59f01c0 	ldr	r0, [pc, #448]	; 70e200 <noMove_DA+0x8>
  70e03c:	e59f21c0 	ldr	r2, [pc, #448]	; 70e204 <noMove_DA+0xc>
  70e040:	e5d22000 	ldrb	r2, [r2]
  70e044:	e1a01002 	mov	r1, r2
  70e048:	e242200a 	sub	r2, r2, #10
  70e04c:	e2822001 	add	r2, r2, #1
  70e050:	ebfff3c5 	bl	70af6c <checkIfDifferentLine>
  70e054:	e3530000 	cmp	r3, #0
  70e058:	0a000066 	beq	70e1f8 <noMove_DA>
  70e05c:	e35200c7 	cmp	r2, #199	; 0xc7
  70e060:	ca000064 	bgt	70e1f8 <noMove_DA>
  70e064:	e3520000 	cmp	r2, #0
  70e068:	ba000062 	blt	70e1f8 <noMove_DA>
  70e06c:	e7d01002 	ldrb	r1, [r0, r2]
  70e070:	e3510001 	cmp	r1, #1
  70e074:	aa00005f 	bge	70e1f8 <noMove_DA>
  70e078:	e59f0180 	ldr	r0, [pc, #384]	; 70e200 <noMove_DA+0x8>
  70e07c:	e59f2184 	ldr	r2, [pc, #388]	; 70e208 <noMove_DA+0x10>
  70e080:	e5d22000 	ldrb	r2, [r2]
  70e084:	e3a01000 	mov	r1, #0
  70e088:	e7c01002 	strb	r1, [r0, r2]
  70e08c:	e59f016c 	ldr	r0, [pc, #364]	; 70e200 <noMove_DA+0x8>
  70e090:	e59f2174 	ldr	r2, [pc, #372]	; 70e20c <noMove_DA+0x14>
  70e094:	e5d22000 	ldrb	r2, [r2]
  70e098:	e3a01000 	mov	r1, #0
  70e09c:	e7c01002 	strb	r1, [r0, r2]
  70e0a0:	e59f0158 	ldr	r0, [pc, #344]	; 70e200 <noMove_DA+0x8>
  70e0a4:	e59f2164 	ldr	r2, [pc, #356]	; 70e210 <noMove_DA+0x18>
  70e0a8:	e5d22000 	ldrb	r2, [r2]
  70e0ac:	e3a01000 	mov	r1, #0
  70e0b0:	e7c01002 	strb	r1, [r0, r2]
  70e0b4:	e59f0144 	ldr	r0, [pc, #324]	; 70e200 <noMove_DA+0x8>
  70e0b8:	e59f2144 	ldr	r2, [pc, #324]	; 70e204 <noMove_DA+0xc>
  70e0bc:	e5d22000 	ldrb	r2, [r2]
  70e0c0:	e3a01000 	mov	r1, #0
  70e0c4:	e7c01002 	strb	r1, [r0, r2]
  70e0c8:	eb0006d2 	bl	70fc18 <drawSquareBlock>
  70e0cc:	e59f0130 	ldr	r0, [pc, #304]	; 70e204 <noMove_DA+0xc>
  70e0d0:	e5d02000 	ldrb	r2, [r0]
  70e0d4:	e242200a 	sub	r2, r2, #10
  70e0d8:	e2822001 	add	r2, r2, #1
  70e0dc:	e5c02000 	strb	r2, [r0]
  70e0e0:	e59f312c 	ldr	r3, [pc, #300]	; 70e214 <noMove_DA+0x1c>
  70e0e4:	e5d33000 	ldrb	r3, [r3]
  70e0e8:	e59f2110 	ldr	r2, [pc, #272]	; 70e200 <noMove_DA+0x8>
  70e0ec:	e59f0114 	ldr	r0, [pc, #276]	; 70e208 <noMove_DA+0x10>
  70e0f0:	e5d01000 	ldrb	r1, [r0]
  70e0f4:	e7c23001 	strb	r3, [r2, r1]
  70e0f8:	e59f010c 	ldr	r0, [pc, #268]	; 70e20c <noMove_DA+0x14>
  70e0fc:	e5d01000 	ldrb	r1, [r0]
  70e100:	e7c23001 	strb	r3, [r2, r1]
  70e104:	e59f0104 	ldr	r0, [pc, #260]	; 70e210 <noMove_DA+0x18>
  70e108:	e5d01000 	ldrb	r1, [r0]
  70e10c:	e7c23001 	strb	r3, [r2, r1]
  70e110:	e59f00ec 	ldr	r0, [pc, #236]	; 70e204 <noMove_DA+0xc>
  70e114:	e5d01000 	ldrb	r1, [r0]
  70e118:	e7c23001 	strb	r3, [r2, r1]
  70e11c:	e59f00f4 	ldr	r0, [pc, #244]	; 70e218 <noMove_DA+0x20>
  70e120:	e3a010ff 	mov	r1, #255	; 0xff
  70e124:	e5c01000 	strb	r1, [r0]
  70e128:	e59f30dc 	ldr	r3, [pc, #220]	; 70e20c <noMove_DA+0x14>
  70e12c:	e5d31000 	ldrb	r1, [r3]
  70e130:	e5c01001 	strb	r1, [r0, #1]
  70e134:	e59f30d4 	ldr	r3, [pc, #212]	; 70e210 <noMove_DA+0x18>
  70e138:	e5d31000 	ldrb	r1, [r3]
  70e13c:	e5c01002 	strb	r1, [r0, #2]
  70e140:	e59f30bc 	ldr	r3, [pc, #188]	; 70e204 <noMove_DA+0xc>
  70e144:	e5d31000 	ldrb	r1, [r3]
  70e148:	e5c01003 	strb	r1, [r0, #3]
  70e14c:	e59f00c8 	ldr	r0, [pc, #200]	; 70e21c <noMove_DA+0x24>
  70e150:	e59f30b0 	ldr	r3, [pc, #176]	; 70e208 <noMove_DA+0x10>
  70e154:	e5d31000 	ldrb	r1, [r3]
  70e158:	e5c01000 	strb	r1, [r0]
  70e15c:	e59f30a8 	ldr	r3, [pc, #168]	; 70e20c <noMove_DA+0x14>
  70e160:	e5d31000 	ldrb	r1, [r3]
  70e164:	e5c01001 	strb	r1, [r0, #1]
  70e168:	e3a010ff 	mov	r1, #255	; 0xff
  70e16c:	e5c01002 	strb	r1, [r0, #2]
  70e170:	e3a010ff 	mov	r1, #255	; 0xff
  70e174:	e5c01003 	strb	r1, [r0, #3]
  70e178:	e59f00a0 	ldr	r0, [pc, #160]	; 70e220 <noMove_DA+0x28>
  70e17c:	e59f3084 	ldr	r3, [pc, #132]	; 70e208 <noMove_DA+0x10>
  70e180:	e5d31000 	ldrb	r1, [r3]
  70e184:	e5c01000 	strb	r1, [r0]
  70e188:	e3a010ff 	mov	r1, #255	; 0xff
  70e18c:	e5c01001 	strb	r1, [r0, #1]
  70e190:	e3a010ff 	mov	r1, #255	; 0xff
  70e194:	e5c01002 	strb	r1, [r0, #2]
  70e198:	e59f3064 	ldr	r3, [pc, #100]	; 70e204 <noMove_DA+0xc>
  70e19c:	e5d31000 	ldrb	r1, [r3]
  70e1a0:	e5c01003 	strb	r1, [r0, #3]
  70e1a4:	e59f30ac 	ldr	r3, [pc, #172]	; 70e258 <noMove_DA+0x60>
  70e1a8:	e59f2078 	ldr	r2, [pc, #120]	; 70e228 <noMove_DA+0x30>
  70e1ac:	e5823000 	str	r3, [r2]
  70e1b0:	e59f30a4 	ldr	r3, [pc, #164]	; 70e25c <noMove_DA+0x64>
  70e1b4:	e59f2074 	ldr	r2, [pc, #116]	; 70e230 <noMove_DA+0x38>
  70e1b8:	e5823000 	str	r3, [r2]
  70e1bc:	e3a03060 	mov	r3, #96	; 0x60
  70e1c0:	e59f206c 	ldr	r2, [pc, #108]	; 70e234 <noMove_DA+0x3c>
  70e1c4:	e5c23000 	strb	r3, [r2]
  70e1c8:	e3a03040 	mov	r3, #64	; 0x40
  70e1cc:	e59f5064 	ldr	r5, [pc, #100]	; 70e238 <noMove_DA+0x40>
  70e1d0:	e5c53000 	strb	r3, [r5]
  70e1d4:	e59f0060 	ldr	r0, [pc, #96]	; 70e23c <noMove_DA+0x44>
  70e1d8:	e5d01000 	ldrb	r1, [r0]
  70e1dc:	e59f005c 	ldr	r0, [pc, #92]	; 70e240 <noMove_DA+0x48>
  70e1e0:	e3a01003 	mov	r1, #3
  70e1e4:	e5c01000 	strb	r1, [r0]
  70e1e8:	e59f0054 	ldr	r0, [pc, #84]	; 70e244 <noMove_DA+0x4c>
  70e1ec:	e3a01000 	mov	r1, #0
  70e1f0:	e5c01000 	strb	r1, [r0]
  70e1f4:	eb000687 	bl	70fc18 <drawSquareBlock>

0070e1f8 <noMove_DA>:
  70e1f8:	e49de004 	pop	{lr}		; (ldr lr, [sp], #4)
  70e1fc:	e1a0f00e 	mov	pc, lr
  70e200:	006c4e98 	.word	0x006c4e98
  70e204:	006c4f63 	.word	0x006c4f63
  70e208:	006c4f60 	.word	0x006c4f60
  70e20c:	006c4f61 	.word	0x006c4f61
  70e210:	006c4f62 	.word	0x006c4f62
  70e214:	006c4f7c 	.word	0x006c4f7c
  70e218:	006c4f64 	.word	0x006c4f64
  70e21c:	006c4f68 	.word	0x006c4f68
  70e220:	006c4f6c 	.word	0x006c4f6c
  70e224:	00682e98 	.word	0x00682e98
  70e228:	006c4f70 	.word	0x006c4f70
  70e22c:	00685e98 	.word	0x00685e98
  70e230:	006c4f74 	.word	0x006c4f74
  70e234:	006c4f78 	.word	0x006c4f78
  70e238:	006c4f79 	.word	0x006c4f79
  70e23c:	006c4f7a 	.word	0x006c4f7a
  70e240:	006c4f7b 	.word	0x006c4f7b
  70e244:	006c4f7d 	.word	0x006c4f7d
  70e248:	00688e98 	.word	0x00688e98
  70e24c:	0068be98 	.word	0x0068be98
  70e250:	0068ee98 	.word	0x0068ee98
  70e254:	00691e98 	.word	0x00691e98
  70e258:	0067ce98 	.word	0x0067ce98
  70e25c:	0067fe98 	.word	0x0067fe98

0070e260 <main>:
  70e260:	e3a0d902 	mov	sp, #32768	; 0x8000
  70e264:	ebfff691 	bl	70bcb0 <EnableJTAG>
  70e268:	ebfff6b3 	bl	70bd3c <InitFrameBuffer>
  70e26c:	ebfffd76 	bl	70d84c <Set_Lines>
  70e270:	eaffffff 	b	70e274 <StartGame>

0070e274 <StartGame>:
  70e274:	ebfffc85 	bl	70d490 <clearScreen>
  70e278:	eb0000fc 	bl	70e670 <setSeed>
  70e27c:	ebfff046 	bl	70a39c <runStartMenu>

0070e280 <InsertNewBlock>:
  70e280:	eb000101 	bl	70e68c <insertRandomBlock>
  70e284:	e3a01001 	mov	r1, #1
  70e288:	eb000194 	bl	70e8e0 <updateScore>
  70e28c:	eb000661 	bl	70fc18 <drawSquareBlock>
  70e290:	eb000001 	bl	70e29c <moveBlockDown>
  70e294:	eb000158 	bl	70e7fc <checkForCompleteLines>
  70e298:	eafffff8 	b	70e280 <InsertNewBlock>

0070e29c <moveBlockDown>:
  70e29c:	e52de004 	push	{lr}		; (str lr, [sp, #-4]!)
  70e2a0:	e52d6004 	push	{r6}		; (str r6, [sp, #-4]!)

0070e2a4 <moveBlockLoop>:
  70e2a4:	eb000057 	bl	70e408 <CheckBlockMove>
  70e2a8:	e3510000 	cmp	r1, #0
  70e2ac:	0a000051 	beq	70e3f8 <NoMove>
  70e2b0:	e3a01000 	mov	r1, #0
  70e2b4:	e59f2694 	ldr	r2, [pc, #1684]	; 70e950 <haltLoop$+0x4>
  70e2b8:	e5d22000 	ldrb	r2, [r2]
  70e2bc:	e59f0690 	ldr	r0, [pc, #1680]	; 70e954 <haltLoop$+0x8>
  70e2c0:	e7c01002 	strb	r1, [r0, r2]
  70e2c4:	e1a01002 	mov	r1, r2
  70e2c8:	e3a01000 	mov	r1, #0
  70e2cc:	e59f2684 	ldr	r2, [pc, #1668]	; 70e958 <haltLoop$+0xc>
  70e2d0:	e5d22000 	ldrb	r2, [r2]
  70e2d4:	e59f0678 	ldr	r0, [pc, #1656]	; 70e954 <haltLoop$+0x8>
  70e2d8:	e7c01002 	strb	r1, [r0, r2]
  70e2dc:	e59f2678 	ldr	r2, [pc, #1656]	; 70e95c <haltLoop$+0x10>
  70e2e0:	e5d22000 	ldrb	r2, [r2]
  70e2e4:	e59f0668 	ldr	r0, [pc, #1640]	; 70e954 <haltLoop$+0x8>
  70e2e8:	e7c01002 	strb	r1, [r0, r2]
  70e2ec:	e59f266c 	ldr	r2, [pc, #1644]	; 70e960 <haltLoop$+0x14>
  70e2f0:	e5d22000 	ldrb	r2, [r2]
  70e2f4:	e59f0658 	ldr	r0, [pc, #1624]	; 70e954 <haltLoop$+0x8>
  70e2f8:	e7c01002 	strb	r1, [r0, r2]
  70e2fc:	eb000645 	bl	70fc18 <drawSquareBlock>
  70e300:	e59f165c 	ldr	r1, [pc, #1628]	; 70e964 <haltLoop$+0x18>
  70e304:	e5d11000 	ldrb	r1, [r1]
  70e308:	e59f3640 	ldr	r3, [pc, #1600]	; 70e950 <haltLoop$+0x4>
  70e30c:	e5d32000 	ldrb	r2, [r3]
  70e310:	e282200a 	add	r2, r2, #10
  70e314:	e5c32000 	strb	r2, [r3]
  70e318:	e59f0634 	ldr	r0, [pc, #1588]	; 70e954 <haltLoop$+0x8>
  70e31c:	e7c01002 	strb	r1, [r0, r2]
  70e320:	e1a01002 	mov	r1, r2
  70e324:	e59f1638 	ldr	r1, [pc, #1592]	; 70e964 <haltLoop$+0x18>
  70e328:	e5d11000 	ldrb	r1, [r1]
  70e32c:	e59f3624 	ldr	r3, [pc, #1572]	; 70e958 <haltLoop$+0xc>
  70e330:	e5d32000 	ldrb	r2, [r3]
  70e334:	e282200a 	add	r2, r2, #10
  70e338:	e5c32000 	strb	r2, [r3]
  70e33c:	e59f0610 	ldr	r0, [pc, #1552]	; 70e954 <haltLoop$+0x8>
  70e340:	e7c01002 	strb	r1, [r0, r2]
  70e344:	e59f3610 	ldr	r3, [pc, #1552]	; 70e95c <haltLoop$+0x10>
  70e348:	e5d32000 	ldrb	r2, [r3]
  70e34c:	e282200a 	add	r2, r2, #10
  70e350:	e5c32000 	strb	r2, [r3]
  70e354:	e59f05f8 	ldr	r0, [pc, #1528]	; 70e954 <haltLoop$+0x8>
  70e358:	e7c01002 	strb	r1, [r0, r2]
  70e35c:	e59f35fc 	ldr	r3, [pc, #1532]	; 70e960 <haltLoop$+0x14>
  70e360:	e5d32000 	ldrb	r2, [r3]
  70e364:	e282200a 	add	r2, r2, #10
  70e368:	e5c32000 	strb	r2, [r3]
  70e36c:	e59f05e0 	ldr	r0, [pc, #1504]	; 70e954 <haltLoop$+0x8>
  70e370:	e7c01002 	strb	r1, [r0, r2]
  70e374:	eb000627 	bl	70fc18 <drawSquareBlock>
  70e378:	e3a06000 	mov	r6, #0
  70e37c:	e59f05e4 	ldr	r0, [pc, #1508]	; 70e968 <haltLoop$+0x1c>

0070e380 <incBordersLoop>:
  70e380:	e3560003 	cmp	r6, #3
  70e384:	0a000019 	beq	70e3f0 <finishIncBorderLoop>
  70e388:	e5d01000 	ldrb	r1, [r0]
  70e38c:	e35100ff 	cmp	r1, #255	; 0xff
  70e390:	0a000001 	beq	70e39c <incSecond>
  70e394:	e281100a 	add	r1, r1, #10
  70e398:	e5c01000 	strb	r1, [r0]

0070e39c <incSecond>:
  70e39c:	e2800001 	add	r0, r0, #1
  70e3a0:	e5d01000 	ldrb	r1, [r0]
  70e3a4:	e35100ff 	cmp	r1, #255	; 0xff
  70e3a8:	0a000001 	beq	70e3b4 <incThird>
  70e3ac:	e281100a 	add	r1, r1, #10
  70e3b0:	e5c01000 	strb	r1, [r0]

0070e3b4 <incThird>:
  70e3b4:	e2800001 	add	r0, r0, #1
  70e3b8:	e5d01000 	ldrb	r1, [r0]
  70e3bc:	e35100ff 	cmp	r1, #255	; 0xff
  70e3c0:	0a000001 	beq	70e3cc <incFourth>
  70e3c4:	e281100a 	add	r1, r1, #10
  70e3c8:	e5c01000 	strb	r1, [r0]

0070e3cc <incFourth>:
  70e3cc:	e2800001 	add	r0, r0, #1
  70e3d0:	e5d01000 	ldrb	r1, [r0]
  70e3d4:	e35100ff 	cmp	r1, #255	; 0xff
  70e3d8:	0a000001 	beq	70e3e4 <finishInc>
  70e3dc:	e281100a 	add	r1, r1, #10
  70e3e0:	e5c01000 	strb	r1, [r0]

0070e3e4 <finishInc>:
  70e3e4:	e2866001 	add	r6, r6, #1
  70e3e8:	e2800001 	add	r0, r0, #1
  70e3ec:	eaffffe3 	b	70e380 <incBordersLoop>

0070e3f0 <finishIncBorderLoop>:
  70e3f0:	ebfffcf4 	bl	70d7c8 <WaitAndCheckSNES>
  70e3f4:	eaffffaa 	b	70e2a4 <moveBlockLoop>

0070e3f8 <NoMove>:
  70e3f8:	eb000035 	bl	70e4d4 <CheckGameOver>
  70e3fc:	e49d6004 	pop	{r6}		; (ldr r6, [sp], #4)
  70e400:	e49de004 	pop	{lr}		; (ldr lr, [sp], #4)
  70e404:	e1a0f00e 	mov	pc, lr

0070e408 <CheckBlockMove>:
  70e408:	e52de004 	push	{lr}		; (str lr, [sp, #-4]!)

0070e40c <checkFirstCoord>:
  70e40c:	e59f3554 	ldr	r3, [pc, #1364]	; 70e968 <haltLoop$+0x1c>
  70e410:	e5d32000 	ldrb	r2, [r3]
  70e414:	e35200ff 	cmp	r2, #255	; 0xff
  70e418:	0a000006 	beq	70e438 <checkSecondCoord>
  70e41c:	e282200a 	add	r2, r2, #10
  70e420:	e35200c8 	cmp	r2, #200	; 0xc8
  70e424:	aa000025 	bge	70e4c0 <bottomOfGrid>
  70e428:	e59f0524 	ldr	r0, [pc, #1316]	; 70e954 <haltLoop$+0x8>
  70e42c:	e7d01002 	ldrb	r1, [r0, r2]
  70e430:	e3510001 	cmp	r1, #1
  70e434:	aa000021 	bge	70e4c0 <bottomOfGrid>

0070e438 <checkSecondCoord>:
  70e438:	e59f3528 	ldr	r3, [pc, #1320]	; 70e968 <haltLoop$+0x1c>
  70e43c:	e5d32001 	ldrb	r2, [r3, #1]
  70e440:	e35200ff 	cmp	r2, #255	; 0xff
  70e444:	0a000006 	beq	70e464 <checkThirdCoord>
  70e448:	e282200a 	add	r2, r2, #10
  70e44c:	e35200c8 	cmp	r2, #200	; 0xc8
  70e450:	aa00001a 	bge	70e4c0 <bottomOfGrid>
  70e454:	e59f04f8 	ldr	r0, [pc, #1272]	; 70e954 <haltLoop$+0x8>
  70e458:	e7d01002 	ldrb	r1, [r0, r2]
  70e45c:	e3510001 	cmp	r1, #1
  70e460:	aa000016 	bge	70e4c0 <bottomOfGrid>

0070e464 <checkThirdCoord>:
  70e464:	e59f34fc 	ldr	r3, [pc, #1276]	; 70e968 <haltLoop$+0x1c>
  70e468:	e5d32002 	ldrb	r2, [r3, #2]
  70e46c:	e35200ff 	cmp	r2, #255	; 0xff
  70e470:	0a000006 	beq	70e490 <checkFourthCoord>
  70e474:	e282200a 	add	r2, r2, #10
  70e478:	e35200c8 	cmp	r2, #200	; 0xc8
  70e47c:	aa00000f 	bge	70e4c0 <bottomOfGrid>
  70e480:	e59f04cc 	ldr	r0, [pc, #1228]	; 70e954 <haltLoop$+0x8>
  70e484:	e7d01002 	ldrb	r1, [r0, r2]
  70e488:	e3510001 	cmp	r1, #1
  70e48c:	aa00000b 	bge	70e4c0 <bottomOfGrid>

0070e490 <checkFourthCoord>:
  70e490:	e59f34d0 	ldr	r3, [pc, #1232]	; 70e968 <haltLoop$+0x1c>
  70e494:	e5d32003 	ldrb	r2, [r3, #3]
  70e498:	e35200ff 	cmp	r2, #255	; 0xff
  70e49c:	0a000009 	beq	70e4c8 <CanMove>
  70e4a0:	e282200a 	add	r2, r2, #10
  70e4a4:	e35200c8 	cmp	r2, #200	; 0xc8
  70e4a8:	aa000004 	bge	70e4c0 <bottomOfGrid>
  70e4ac:	e59f04a0 	ldr	r0, [pc, #1184]	; 70e954 <haltLoop$+0x8>
  70e4b0:	e7d01002 	ldrb	r1, [r0, r2]
  70e4b4:	e3510001 	cmp	r1, #1
  70e4b8:	aa000000 	bge	70e4c0 <bottomOfGrid>
  70e4bc:	ea000001 	b	70e4c8 <CanMove>

0070e4c0 <bottomOfGrid>:
  70e4c0:	e3a01000 	mov	r1, #0
  70e4c4:	ea000000 	b	70e4cc <endCheckBlock>

0070e4c8 <CanMove>:
  70e4c8:	e3a01001 	mov	r1, #1

0070e4cc <endCheckBlock>:
  70e4cc:	e49de004 	pop	{lr}		; (ldr lr, [sp], #4)
  70e4d0:	e1a0f00e 	mov	pc, lr

0070e4d4 <CheckGameOver>:
  70e4d4:	e1a0300e 	mov	r3, lr
  70e4d8:	e52d3004 	push	{r3}		; (str r3, [sp, #-4]!)
  70e4dc:	e59f346c 	ldr	r3, [pc, #1132]	; 70e950 <haltLoop$+0x4>
  70e4e0:	e5d32000 	ldrb	r2, [r3]
  70e4e4:	e352000a 	cmp	r2, #10
  70e4e8:	ba00000c 	blt	70e520 <GameIsOver>
  70e4ec:	e59f3464 	ldr	r3, [pc, #1124]	; 70e958 <haltLoop$+0xc>
  70e4f0:	e5d32000 	ldrb	r2, [r3]
  70e4f4:	e352000a 	cmp	r2, #10
  70e4f8:	ba000008 	blt	70e520 <GameIsOver>
  70e4fc:	e59f3458 	ldr	r3, [pc, #1112]	; 70e95c <haltLoop$+0x10>
  70e500:	e5d32000 	ldrb	r2, [r3]
  70e504:	e352000a 	cmp	r2, #10
  70e508:	ba000004 	blt	70e520 <GameIsOver>
  70e50c:	e59f344c 	ldr	r3, [pc, #1100]	; 70e960 <haltLoop$+0x14>
  70e510:	e5d32000 	ldrb	r2, [r3]
  70e514:	e352000a 	cmp	r2, #10
  70e518:	ba000000 	blt	70e520 <GameIsOver>
  70e51c:	ea000000 	b	70e524 <FinishCheckGameOver>

0070e520 <GameIsOver>:
  70e520:	ea0000ff 	b	70e924 <playerLost>

0070e524 <FinishCheckGameOver>:
  70e524:	e49d3004 	pop	{r3}		; (ldr r3, [sp], #4)
  70e528:	e1a0f003 	mov	pc, r3

0070e52c <drawCurrentBlock>:
  70e52c:	e52de004 	push	{lr}		; (str lr, [sp, #-4]!)
  70e530:	e92d00d0 	push	{r4, r6, r7}
  70e534:	e1a02001 	mov	r2, r1
  70e538:	e1a07002 	mov	r7, r2
  70e53c:	e3a06000 	mov	r6, #0

0070e540 <drawModLoop>:
  70e540:	e252200a 	subs	r2, r2, #10
  70e544:	ba000002 	blt	70e554 <drawEndMod>
  70e548:	e2866001 	add	r6, r6, #1
  70e54c:	e1a07002 	mov	r7, r2
  70e550:	eafffffa 	b	70e540 <drawModLoop>

0070e554 <drawEndMod>:
  70e554:	e3a01064 	mov	r1, #100	; 0x64
  70e558:	e1a06286 	lsl	r6, r6, #5
  70e55c:	e0811006 	add	r1, r1, r6
  70e560:	e59f0404 	ldr	r0, [pc, #1028]	; 70e96c <haltLoop$+0x20>
  70e564:	e5d00000 	ldrb	r0, [r0]
  70e568:	e1a00280 	lsl	r0, r0, #5
  70e56c:	e2800d06 	add	r0, r0, #384	; 0x180
  70e570:	e59f33f8 	ldr	r3, [pc, #1016]	; 70e970 <haltLoop$+0x24>
  70e574:	e5d33000 	ldrb	r3, [r3]
  70e578:	e1a02003 	mov	r2, r3
  70e57c:	e59f33f0 	ldr	r3, [pc, #1008]	; 70e974 <haltLoop$+0x28>
  70e580:	e5d33000 	ldrb	r3, [r3]
  70e584:	e59f43ec 	ldr	r4, [pc, #1004]	; 70e978 <haltLoop$+0x2c>
  70e588:	e5944000 	ldr	r4, [r4]
  70e58c:	ebfffbe3 	bl	70d520 <drawImage>
  70e590:	e8bd00d0 	pop	{r4, r6, r7}
  70e594:	e49de004 	pop	{lr}		; (ldr lr, [sp], #4)
  70e598:	e1a0f00e 	mov	pc, lr

0070e59c <eraseCurrentBlock>:
  70e59c:	e52de004 	push	{lr}		; (str lr, [sp, #-4]!)
  70e5a0:	e52d4004 	push	{r4}		; (str r4, [sp, #-4]!)
  70e5a4:	e1a02001 	mov	r2, r1
  70e5a8:	e1a07002 	mov	r7, r2
  70e5ac:	e3a06000 	mov	r6, #0

0070e5b0 <eraseModLoop>:
  70e5b0:	e252200a 	subs	r2, r2, #10
  70e5b4:	ba000002 	blt	70e5c4 <eraseEndMod>
  70e5b8:	e2866001 	add	r6, r6, #1
  70e5bc:	e1a07002 	mov	r7, r2
  70e5c0:	eafffffa 	b	70e5b0 <eraseModLoop>

0070e5c4 <eraseEndMod>:
  70e5c4:	e3a01064 	mov	r1, #100	; 0x64
  70e5c8:	e1a06286 	lsl	r6, r6, #5
  70e5cc:	e0811006 	add	r1, r1, r6
  70e5d0:	e59f0394 	ldr	r0, [pc, #916]	; 70e96c <haltLoop$+0x20>
  70e5d4:	e5d00000 	ldrb	r0, [r0]
  70e5d8:	e1a00280 	lsl	r0, r0, #5
  70e5dc:	e2800d06 	add	r0, r0, #384	; 0x180
  70e5e0:	e59f3388 	ldr	r3, [pc, #904]	; 70e970 <haltLoop$+0x24>
  70e5e4:	e5d33000 	ldrb	r3, [r3]
  70e5e8:	e1a02003 	mov	r2, r3
  70e5ec:	e59f3380 	ldr	r3, [pc, #896]	; 70e974 <haltLoop$+0x28>
  70e5f0:	e5d33000 	ldrb	r3, [r3]
  70e5f4:	e59f4380 	ldr	r4, [pc, #896]	; 70e97c <haltLoop$+0x30>
  70e5f8:	e5944000 	ldr	r4, [r4]
  70e5fc:	ebfffbc7 	bl	70d520 <drawImage>
  70e600:	e49d4004 	pop	{r4}		; (ldr r4, [sp], #4)
  70e604:	e49de004 	pop	{lr}		; (ldr lr, [sp], #4)
  70e608:	e1a0f00e 	mov	pc, lr

0070e60c <xorShift>:
  70e60c:	e52de004 	push	{lr}		; (str lr, [sp, #-4]!)
  70e610:	e52d4004 	push	{r4}		; (str r4, [sp, #-4]!)
  70e614:	e2811001 	add	r1, r1, #1
  70e618:	e59f0360 	ldr	r0, [pc, #864]	; 70e980 <haltLoop$+0x34>
  70e61c:	e5d00000 	ldrb	r0, [r0]
  70e620:	e1a04000 	mov	r4, r0
  70e624:	e1a00380 	lsl	r0, r0, #7
  70e628:	e0244000 	eor	r4, r4, r0
  70e62c:	e1a02004 	mov	r2, r4
  70e630:	e1a042a4 	lsr	r4, r4, #5
  70e634:	e0244002 	eor	r4, r4, r2
  70e638:	e1a02004 	mov	r2, r4
  70e63c:	e1a02182 	lsl	r2, r2, #3
  70e640:	e0244002 	eor	r4, r4, r2
  70e644:	e59f0334 	ldr	r0, [pc, #820]	; 70e980 <haltLoop$+0x34>
  70e648:	e5c04000 	strb	r4, [r0]

0070e64c <randModLoop>:
  70e64c:	e1540001 	cmp	r4, r1
  70e650:	da000001 	ble	70e65c <finishRand>
  70e654:	e0444001 	sub	r4, r4, r1
  70e658:	eafffffb 	b	70e64c <randModLoop>

0070e65c <finishRand>:
  70e65c:	e2444001 	sub	r4, r4, #1
  70e660:	e1a01004 	mov	r1, r4
  70e664:	e49d4004 	pop	{r4}		; (ldr r4, [sp], #4)
  70e668:	e49de004 	pop	{lr}		; (ldr lr, [sp], #4)
  70e66c:	e1a0f00e 	mov	pc, lr

0070e670 <setSeed>:
  70e670:	e52de004 	push	{lr}		; (str lr, [sp, #-4]!)
  70e674:	e59f1304 	ldr	r1, [pc, #772]	; 70e980 <haltLoop$+0x34>
  70e678:	e59f0304 	ldr	r0, [pc, #772]	; 70e984 <haltLoop$+0x38>
  70e67c:	e5902004 	ldr	r2, [r0, #4]
  70e680:	e5812000 	str	r2, [r1]
  70e684:	e49de004 	pop	{lr}		; (ldr lr, [sp], #4)
  70e688:	e1a0f00e 	mov	pc, lr

0070e68c <insertRandomBlock>:
  70e68c:	e52de004 	push	{lr}		; (str lr, [sp, #-4]!)
  70e690:	e3a01006 	mov	r1, #6
  70e694:	ebffffdc 	bl	70e60c <xorShift>
  70e698:	e3510000 	cmp	r1, #0
  70e69c:	0a00000b 	beq	70e6d0 <block0>
  70e6a0:	e3510001 	cmp	r1, #1
  70e6a4:	0a00000b 	beq	70e6d8 <block1>
  70e6a8:	e3510002 	cmp	r1, #2
  70e6ac:	0a00000b 	beq	70e6e0 <block2>
  70e6b0:	e3510003 	cmp	r1, #3
  70e6b4:	0a00000b 	beq	70e6e8 <block3>
  70e6b8:	e3510004 	cmp	r1, #4
  70e6bc:	0a00000b 	beq	70e6f0 <block4>
  70e6c0:	e3510005 	cmp	r1, #5
  70e6c4:	0a00000b 	beq	70e6f8 <block5>
  70e6c8:	e3510006 	cmp	r1, #6
  70e6cc:	0a00000b 	beq	70e700 <block6>

0070e6d0 <block0>:
  70e6d0:	ebfff707 	bl	70c2f4 <insertNewOBeam>
  70e6d4:	ea00000b 	b	70e708 <finishRandInsert>

0070e6d8 <block1>:
  70e6d8:	ebfff851 	bl	70c824 <insertNewLOBeam>
  70e6dc:	ea000009 	b	70e708 <finishRandInsert>

0070e6e0 <block2>:
  70e6e0:	ebfff7e0 	bl	70c668 <insertNewLBBeam>
  70e6e4:	ea000007 	b	70e708 <finishRandInsert>

0070e6e8 <block3>:
  70e6e8:	ebfff692 	bl	70c138 <insertNewSRBeam>
  70e6ec:	ea000005 	b	70e708 <finishRandInsert>

0070e6f0 <block4>:
  70e6f0:	ebfff76d 	bl	70c4ac <insertNewWBeam>
  70e6f4:	ea000003 	b	70e708 <finishRandInsert>

0070e6f8 <block5>:
  70e6f8:	ebfff61e 	bl	70bf78 <insertNewSBeam>
  70e6fc:	ea000001 	b	70e708 <finishRandInsert>

0070e700 <block6>:
  70e700:	ebfff5ad 	bl	70bdbc <insertNewIBeam>
  70e704:	eaffffff 	b	70e708 <finishRandInsert>

0070e708 <finishRandInsert>:
  70e708:	e49de004 	pop	{lr}		; (ldr lr, [sp], #4)
  70e70c:	e1a0f00e 	mov	pc, lr

0070e710 <drawIntroScreen>:
  70e710:	e52de004 	push	{lr}		; (str lr, [sp, #-4]!)
  70e714:	e92d0030 	push	{r4, r5}
  70e718:	e59f4268 	ldr	r4, [pc, #616]	; 70e988 <haltLoop$+0x3c>
  70e71c:	e3a01000 	mov	r1, #0
  70e720:	e3a00000 	mov	r0, #0
  70e724:	e3a02b01 	mov	r2, #1024	; 0x400
  70e728:	e3a03c03 	mov	r3, #768	; 0x300
  70e72c:	ebfffb7b 	bl	70d520 <drawImage>
  70e730:	e8bd0030 	pop	{r4, r5}
  70e734:	e49de004 	pop	{lr}		; (ldr lr, [sp], #4)
  70e738:	e1a0f00e 	mov	pc, lr

0070e73c <drawGameArea>:
  70e73c:	e52de004 	push	{lr}		; (str lr, [sp, #-4]!)
  70e740:	e92d0030 	push	{r4, r5}
  70e744:	e59f4240 	ldr	r4, [pc, #576]	; 70e98c <haltLoop$+0x40>
  70e748:	e3a01000 	mov	r1, #0
  70e74c:	e3a00000 	mov	r0, #0
  70e750:	e3a02b01 	mov	r2, #1024	; 0x400
  70e754:	e3a03c03 	mov	r3, #768	; 0x300
  70e758:	ebfffb70 	bl	70d520 <drawImage>
  70e75c:	e8bd0030 	pop	{r4, r5}
  70e760:	e49de004 	pop	{lr}		; (ldr lr, [sp], #4)
  70e764:	e1a0f00e 	mov	pc, lr

0070e768 <drawWonScreen>:
  70e768:	e52de004 	push	{lr}		; (str lr, [sp, #-4]!)
  70e76c:	e92d0030 	push	{r4, r5}
  70e770:	e59f4218 	ldr	r4, [pc, #536]	; 70e990 <haltLoop$+0x44>
  70e774:	e3a01000 	mov	r1, #0
  70e778:	e3a00000 	mov	r0, #0
  70e77c:	e3a02b01 	mov	r2, #1024	; 0x400
  70e780:	e3a03c03 	mov	r3, #768	; 0x300
  70e784:	ebfffb65 	bl	70d520 <drawImage>
  70e788:	e8bd0030 	pop	{r4, r5}
  70e78c:	e49de004 	pop	{lr}		; (ldr lr, [sp], #4)
  70e790:	e1a0f00e 	mov	pc, lr

0070e794 <drawGameOverScreen>:
  70e794:	e52de004 	push	{lr}		; (str lr, [sp, #-4]!)
  70e798:	e92d0030 	push	{r4, r5}
  70e79c:	e59f41f0 	ldr	r4, [pc, #496]	; 70e994 <haltLoop$+0x48>
  70e7a0:	e3a01000 	mov	r1, #0
  70e7a4:	e3a00000 	mov	r0, #0
  70e7a8:	e3a02b01 	mov	r2, #1024	; 0x400
  70e7ac:	e3a03c03 	mov	r3, #768	; 0x300
  70e7b0:	ebfffb5a 	bl	70d520 <drawImage>
  70e7b4:	e8bd0030 	pop	{r4, r5}
  70e7b8:	e49de004 	pop	{lr}		; (ldr lr, [sp], #4)
  70e7bc:	e1a0f00e 	mov	pc, lr

0070e7c0 <resetGameState>:
  70e7c0:	e52de004 	push	{lr}		; (str lr, [sp, #-4]!)
  70e7c4:	e59f01cc 	ldr	r0, [pc, #460]	; 70e998 <haltLoop$+0x4c>
  70e7c8:	e3a02000 	mov	r2, #0
  70e7cc:	e5802000 	str	r2, [r0]
  70e7d0:	e59f017c 	ldr	r0, [pc, #380]	; 70e954 <haltLoop$+0x8>
  70e7d4:	e3a03000 	mov	r3, #0
  70e7d8:	e3a010c8 	mov	r1, #200	; 0xc8
  70e7dc:	e3a02000 	mov	r2, #0

0070e7e0 <resetStateLoop>:
  70e7e0:	e1520001 	cmp	r2, r1
  70e7e4:	0a000002 	beq	70e7f4 <finishStateReset>
  70e7e8:	e4c03001 	strb	r3, [r0], #1
  70e7ec:	e2822001 	add	r2, r2, #1
  70e7f0:	eafffffa 	b	70e7e0 <resetStateLoop>

0070e7f4 <finishStateReset>:
  70e7f4:	e49de004 	pop	{lr}		; (ldr lr, [sp], #4)
  70e7f8:	e1a0f00e 	mov	pc, lr

0070e7fc <checkForCompleteLines>:
  70e7fc:	e52de004 	push	{lr}		; (str lr, [sp, #-4]!)
  70e800:	e92d00f0 	push	{r4, r5, r6, r7}
  70e804:	e59f4148 	ldr	r4, [pc, #328]	; 70e954 <haltLoop$+0x8>
  70e808:	e28440c7 	add	r4, r4, #199	; 0xc7
  70e80c:	e3a05013 	mov	r5, #19
  70e810:	e3a06000 	mov	r6, #0

0070e814 <lineLoop>:
  70e814:	e356000a 	cmp	r6, #10
  70e818:	0a000004 	beq	70e830 <clearLine>
  70e81c:	e7547006 	ldrb	r7, [r4, -r6]
  70e820:	e3570000 	cmp	r7, #0
  70e824:	0a000008 	beq	70e84c <nextLine>
  70e828:	e2866001 	add	r6, r6, #1
  70e82c:	eafffff8 	b	70e814 <lineLoop>

0070e830 <clearLine>:
  70e830:	e1a01005 	mov	r1, r5
  70e834:	eb00000d 	bl	70e870 <clearLineGameState>
  70e838:	eb000584 	bl	70fe50 <restoreCurrentGame>
  70e83c:	e3a0100a 	mov	r1, #10
  70e840:	eb000026 	bl	70e8e0 <updateScore>
  70e844:	e2855001 	add	r5, r5, #1
  70e848:	e284400a 	add	r4, r4, #10

0070e84c <nextLine>:
  70e84c:	e3550000 	cmp	r5, #0
  70e850:	0a000003 	beq	70e864 <finishCheckLines>
  70e854:	e3a06000 	mov	r6, #0
  70e858:	e2455001 	sub	r5, r5, #1
  70e85c:	e244400a 	sub	r4, r4, #10
  70e860:	eaffffeb 	b	70e814 <lineLoop>

0070e864 <finishCheckLines>:
  70e864:	e8bd00f0 	pop	{r4, r5, r6, r7}
  70e868:	e49de004 	pop	{lr}		; (ldr lr, [sp], #4)
  70e86c:	e1a0f00e 	mov	pc, lr

0070e870 <clearLineGameState>:
  70e870:	e52de004 	push	{lr}		; (str lr, [sp, #-4]!)
  70e874:	e52d4004 	push	{r4}		; (str r4, [sp, #-4]!)
  70e878:	e59f30d4 	ldr	r3, [pc, #212]	; 70e954 <haltLoop$+0x8>
  70e87c:	e3a02000 	mov	r2, #0
  70e880:	e3a00000 	mov	r0, #0

0070e884 <getLineLoop>:
  70e884:	e1500001 	cmp	r0, r1
  70e888:	0a000002 	beq	70e898 <clearLineValues>
  70e88c:	e2800001 	add	r0, r0, #1
  70e890:	e282200a 	add	r2, r2, #10
  70e894:	eafffffa 	b	70e884 <getLineLoop>

0070e898 <clearLineValues>:
  70e898:	e3520000 	cmp	r2, #0
  70e89c:	0a00000c 	beq	70e8d4 <finishClearValues>
  70e8a0:	e3a00000 	mov	r0, #0
  70e8a4:	e1a01002 	mov	r1, r2
  70e8a8:	e241100a 	sub	r1, r1, #10

0070e8ac <clearValuesLoop>:
  70e8ac:	e350000a 	cmp	r0, #10
  70e8b0:	0a000005 	beq	70e8cc <updateNextLine>
  70e8b4:	e7d34001 	ldrb	r4, [r3, r1]
  70e8b8:	e7c34002 	strb	r4, [r3, r2]
  70e8bc:	e2822001 	add	r2, r2, #1
  70e8c0:	e2811001 	add	r1, r1, #1
  70e8c4:	e2800001 	add	r0, r0, #1
  70e8c8:	eafffff7 	b	70e8ac <clearValuesLoop>

0070e8cc <updateNextLine>:
  70e8cc:	e2422014 	sub	r2, r2, #20
  70e8d0:	eafffff0 	b	70e898 <clearLineValues>

0070e8d4 <finishClearValues>:
  70e8d4:	e49d4004 	pop	{r4}		; (ldr r4, [sp], #4)
  70e8d8:	e49de004 	pop	{lr}		; (ldr lr, [sp], #4)
  70e8dc:	e1a0f00e 	mov	pc, lr

0070e8e0 <updateScore>:
  70e8e0:	e52de004 	push	{lr}		; (str lr, [sp, #-4]!)
  70e8e4:	e59f00ac 	ldr	r0, [pc, #172]	; 70e998 <haltLoop$+0x4c>
  70e8e8:	e5902000 	ldr	r2, [r0]
  70e8ec:	e0822001 	add	r2, r2, r1
  70e8f0:	e3520096 	cmp	r2, #150	; 0x96
  70e8f4:	aa000003 	bge	70e908 <gameOver>
  70e8f8:	e5802000 	str	r2, [r0]
  70e8fc:	e1a01002 	mov	r1, r2
  70e900:	ebfffb3c 	bl	70d5f8 <drawCurrentScore>
  70e904:	ea000000 	b	70e90c <scoreEnd>

0070e908 <gameOver>:
  70e908:	ea000003 	b	70e91c <playerWon>

0070e90c <scoreEnd>:
  70e90c:	e49de004 	pop	{lr}		; (ldr lr, [sp], #4)
  70e910:	e1a0f00e 	mov	pc, lr

0070e914 <quitProgram>:
  70e914:	ebffffa9 	bl	70e7c0 <resetGameState>
  70e918:	eaffee9f 	b	70a39c <runStartMenu>

0070e91c <playerWon>:
  70e91c:	ebffff91 	bl	70e768 <drawWonScreen>
  70e920:	ea000001 	b	70e92c <waitForInput>

0070e924 <playerLost>:
  70e924:	ebffff9a 	bl	70e794 <drawGameOverScreen>
  70e928:	eaffffff 	b	70e92c <waitForInput>

0070e92c <waitForInput>:
  70e92c:	e52d9004 	push	{r9}		; (str r9, [sp, #-4]!)
  70e930:	ebfffbe9 	bl	70d8dc <Read_Data>
  70e934:	e1a09000 	mov	r9, r0

0070e938 <getSNESInput>:
  70e938:	ebfffbe7 	bl	70d8dc <Read_Data>
  70e93c:	e1500009 	cmp	r0, r9
  70e940:	0afffffc 	beq	70e938 <getSNESInput>
  70e944:	e49d9004 	pop	{r9}		; (ldr r9, [sp], #4)
  70e948:	eaffee93 	b	70a39c <runStartMenu>

0070e94c <haltLoop$>:
  70e94c:	eafffffe 	b	70e94c <haltLoop$>
  70e950:	006c4f60 	.word	0x006c4f60
  70e954:	006c4e98 	.word	0x006c4e98
  70e958:	006c4f61 	.word	0x006c4f61
  70e95c:	006c4f62 	.word	0x006c4f62
  70e960:	006c4f63 	.word	0x006c4f63
  70e964:	006c4f7c 	.word	0x006c4f7c
  70e968:	006c4f64 	.word	0x006c4f64
  70e96c:	006c4f7a 	.word	0x006c4f7a
  70e970:	006c4f78 	.word	0x006c4f78
  70e974:	006c4f79 	.word	0x006c4f79
  70e978:	006c4f70 	.word	0x006c4f70
  70e97c:	006c4f74 	.word	0x006c4f74
  70e980:	006c4f80 	.word	0x006c4f80
  70e984:	3f003000 	.word	0x3f003000
  70e988:	00058e98 	.word	0x00058e98
  70e98c:	001d8e98 	.word	0x001d8e98
  70e990:	004d8e98 	.word	0x004d8e98
  70e994:	00358e98 	.word	0x00358e98
  70e998:	006c4f84 	.word	0x006c4f84

0070e99c <rotate2_AB>:
  70e99c:	e52de004 	push	{lr}		; (str lr, [sp, #-4]!)
  70e9a0:	e59f08e4 	ldr	r0, [pc, #2276]	; 70f28c <noMove_DA+0x8>
  70e9a4:	e59f28e4 	ldr	r2, [pc, #2276]	; 70f290 <noMove_DA+0xc>
  70e9a8:	e5d22000 	ldrb	r2, [r2]
  70e9ac:	e1a01002 	mov	r1, r2
  70e9b0:	e2822002 	add	r2, r2, #2
  70e9b4:	ebfff16c 	bl	70af6c <checkIfDifferentLine>
  70e9b8:	e3530000 	cmp	r3, #0
  70e9bc:	1a000085 	bne	70ebd8 <finishTester>
  70e9c0:	e35200c7 	cmp	r2, #199	; 0xc7
  70e9c4:	ca000083 	bgt	70ebd8 <finishTester>
  70e9c8:	e3520000 	cmp	r2, #0
  70e9cc:	ba000081 	blt	70ebd8 <finishTester>
  70e9d0:	e7d01002 	ldrb	r1, [r0, r2]
  70e9d4:	e3510001 	cmp	r1, #1
  70e9d8:	aa00007e 	bge	70ebd8 <finishTester>
  70e9dc:	e59f08a8 	ldr	r0, [pc, #2216]	; 70f28c <noMove_DA+0x8>
  70e9e0:	e59f28ac 	ldr	r2, [pc, #2220]	; 70f294 <noMove_DA+0x10>
  70e9e4:	e5d22000 	ldrb	r2, [r2]
  70e9e8:	e1a01002 	mov	r1, r2
  70e9ec:	e2422001 	sub	r2, r2, #1
  70e9f0:	e282200a 	add	r2, r2, #10
  70e9f4:	ebfff15c 	bl	70af6c <checkIfDifferentLine>
  70e9f8:	e3530000 	cmp	r3, #0
  70e9fc:	0a000075 	beq	70ebd8 <finishTester>
  70ea00:	e35200c7 	cmp	r2, #199	; 0xc7
  70ea04:	ca000073 	bgt	70ebd8 <finishTester>
  70ea08:	e3520000 	cmp	r2, #0
  70ea0c:	ba000071 	blt	70ebd8 <finishTester>
  70ea10:	e7d01002 	ldrb	r1, [r0, r2]
  70ea14:	e3510001 	cmp	r1, #1
  70ea18:	aa00006e 	bge	70ebd8 <finishTester>
  70ea1c:	e59f0868 	ldr	r0, [pc, #2152]	; 70f28c <noMove_DA+0x8>
  70ea20:	e59f2868 	ldr	r2, [pc, #2152]	; 70f290 <noMove_DA+0xc>
  70ea24:	e5d22000 	ldrb	r2, [r2]
  70ea28:	e3a01000 	mov	r1, #0
  70ea2c:	e7c01002 	strb	r1, [r0, r2]
  70ea30:	e59f0854 	ldr	r0, [pc, #2132]	; 70f28c <noMove_DA+0x8>
  70ea34:	e59f285c 	ldr	r2, [pc, #2140]	; 70f298 <noMove_DA+0x14>
  70ea38:	e5d22000 	ldrb	r2, [r2]
  70ea3c:	e3a01000 	mov	r1, #0
  70ea40:	e7c01002 	strb	r1, [r0, r2]
  70ea44:	e59f0840 	ldr	r0, [pc, #2112]	; 70f28c <noMove_DA+0x8>
  70ea48:	e59f284c 	ldr	r2, [pc, #2124]	; 70f29c <noMove_DA+0x18>
  70ea4c:	e5d22000 	ldrb	r2, [r2]
  70ea50:	e3a01000 	mov	r1, #0
  70ea54:	e7c01002 	strb	r1, [r0, r2]
  70ea58:	e59f082c 	ldr	r0, [pc, #2092]	; 70f28c <noMove_DA+0x8>
  70ea5c:	e59f2830 	ldr	r2, [pc, #2096]	; 70f294 <noMove_DA+0x10>
  70ea60:	e5d22000 	ldrb	r2, [r2]
  70ea64:	e3a01000 	mov	r1, #0
  70ea68:	e7c01002 	strb	r1, [r0, r2]
  70ea6c:	eb000469 	bl	70fc18 <drawSquareBlock>
  70ea70:	e59f0818 	ldr	r0, [pc, #2072]	; 70f290 <noMove_DA+0xc>
  70ea74:	e5d02000 	ldrb	r2, [r0]
  70ea78:	e2822002 	add	r2, r2, #2
  70ea7c:	e5c02000 	strb	r2, [r0]
  70ea80:	e59f0810 	ldr	r0, [pc, #2064]	; 70f298 <noMove_DA+0x14>
  70ea84:	e5d02000 	ldrb	r2, [r0]
  70ea88:	e282200a 	add	r2, r2, #10
  70ea8c:	e5c02000 	strb	r2, [r0]
  70ea90:	e59f0804 	ldr	r0, [pc, #2052]	; 70f29c <noMove_DA+0x18>
  70ea94:	e5d02000 	ldrb	r2, [r0]
  70ea98:	e2822001 	add	r2, r2, #1
  70ea9c:	e5c02000 	strb	r2, [r0]
  70eaa0:	e59f07ec 	ldr	r0, [pc, #2028]	; 70f294 <noMove_DA+0x10>
  70eaa4:	e5d02000 	ldrb	r2, [r0]
  70eaa8:	e2422001 	sub	r2, r2, #1
  70eaac:	e282200a 	add	r2, r2, #10
  70eab0:	e5c02000 	strb	r2, [r0]
  70eab4:	e59f37e4 	ldr	r3, [pc, #2020]	; 70f2a0 <noMove_DA+0x1c>
  70eab8:	e5933000 	ldr	r3, [r3]
  70eabc:	e59f27c8 	ldr	r2, [pc, #1992]	; 70f28c <noMove_DA+0x8>
  70eac0:	e59f07c8 	ldr	r0, [pc, #1992]	; 70f290 <noMove_DA+0xc>
  70eac4:	e5d01000 	ldrb	r1, [r0]
  70eac8:	e7c23001 	strb	r3, [r2, r1]
  70eacc:	e59f07c4 	ldr	r0, [pc, #1988]	; 70f298 <noMove_DA+0x14>
  70ead0:	e5d01000 	ldrb	r1, [r0]
  70ead4:	e7c23001 	strb	r3, [r2, r1]
  70ead8:	e59f07bc 	ldr	r0, [pc, #1980]	; 70f29c <noMove_DA+0x18>
  70eadc:	e5d01000 	ldrb	r1, [r0]
  70eae0:	e7c23001 	strb	r3, [r2, r1]
  70eae4:	e59f07a8 	ldr	r0, [pc, #1960]	; 70f294 <noMove_DA+0x10>
  70eae8:	e5d01000 	ldrb	r1, [r0]
  70eaec:	e7c23001 	strb	r3, [r2, r1]
  70eaf0:	e59f07ac 	ldr	r0, [pc, #1964]	; 70f2a4 <noMove_DA+0x20>
  70eaf4:	e3a010ff 	mov	r1, #255	; 0xff
  70eaf8:	e5c01000 	strb	r1, [r0]
  70eafc:	e3a010ff 	mov	r1, #255	; 0xff
  70eb00:	e5c01001 	strb	r1, [r0, #1]
  70eb04:	e59f1790 	ldr	r1, [pc, #1936]	; 70f29c <noMove_DA+0x18>
  70eb08:	e5d11000 	ldrb	r1, [r1]
  70eb0c:	e5c01002 	strb	r1, [r0, #2]
  70eb10:	e59f177c 	ldr	r1, [pc, #1916]	; 70f294 <noMove_DA+0x10>
  70eb14:	e5d11000 	ldrb	r1, [r1]
  70eb18:	e5c01003 	strb	r1, [r0, #3]
  70eb1c:	e59f0784 	ldr	r0, [pc, #1924]	; 70f2a8 <noMove_DA+0x24>
  70eb20:	e59f1768 	ldr	r1, [pc, #1896]	; 70f290 <noMove_DA+0xc>
  70eb24:	e5d11000 	ldrb	r1, [r1]
  70eb28:	e5c01000 	strb	r1, [r0]
  70eb2c:	e59f1764 	ldr	r1, [pc, #1892]	; 70f298 <noMove_DA+0x14>
  70eb30:	e5d11000 	ldrb	r1, [r1]
  70eb34:	e5c01001 	strb	r1, [r0, #1]
  70eb38:	e3a010ff 	mov	r1, #255	; 0xff
  70eb3c:	e5c01002 	strb	r1, [r0, #2]
  70eb40:	e59f174c 	ldr	r1, [pc, #1868]	; 70f294 <noMove_DA+0x10>
  70eb44:	e5d11000 	ldrb	r1, [r1]
  70eb48:	e5c01003 	strb	r1, [r0, #3]
  70eb4c:	e59f0758 	ldr	r0, [pc, #1880]	; 70f2ac <noMove_DA+0x28>
  70eb50:	e59f1738 	ldr	r1, [pc, #1848]	; 70f290 <noMove_DA+0xc>
  70eb54:	e5d11000 	ldrb	r1, [r1]
  70eb58:	e5c01000 	strb	r1, [r0]
  70eb5c:	e3a010ff 	mov	r1, #255	; 0xff
  70eb60:	e5c01001 	strb	r1, [r0, #1]
  70eb64:	e59f1730 	ldr	r1, [pc, #1840]	; 70f29c <noMove_DA+0x18>
  70eb68:	e5d11000 	ldrb	r1, [r1]
  70eb6c:	e5c01002 	strb	r1, [r0, #2]
  70eb70:	e59f171c 	ldr	r1, [pc, #1820]	; 70f294 <noMove_DA+0x10>
  70eb74:	e5d11000 	ldrb	r1, [r1]
  70eb78:	e5c01003 	strb	r1, [r0, #3]
  70eb7c:	e59f372c 	ldr	r3, [pc, #1836]	; 70f2b0 <noMove_DA+0x2c>
  70eb80:	e59f272c 	ldr	r2, [pc, #1836]	; 70f2b4 <noMove_DA+0x30>
  70eb84:	e5823000 	str	r3, [r2]
  70eb88:	e59f3728 	ldr	r3, [pc, #1832]	; 70f2b8 <noMove_DA+0x34>
  70eb8c:	e59f2728 	ldr	r2, [pc, #1832]	; 70f2bc <noMove_DA+0x38>
  70eb90:	e5823000 	str	r3, [r2]
  70eb94:	e3a03040 	mov	r3, #64	; 0x40
  70eb98:	e59f2720 	ldr	r2, [pc, #1824]	; 70f2c0 <noMove_DA+0x3c>
  70eb9c:	e5c23000 	strb	r3, [r2]
  70eba0:	e3a03060 	mov	r3, #96	; 0x60
  70eba4:	e59f5718 	ldr	r5, [pc, #1816]	; 70f2c4 <noMove_DA+0x40>
  70eba8:	e5c53000 	strb	r3, [r5]
  70ebac:	e59f0714 	ldr	r0, [pc, #1812]	; 70f2c8 <noMove_DA+0x44>
  70ebb0:	e5d01000 	ldrb	r1, [r0]
  70ebb4:	e2811001 	add	r1, r1, #1
  70ebb8:	e5c01000 	strb	r1, [r0]
  70ebbc:	e59f0708 	ldr	r0, [pc, #1800]	; 70f2cc <noMove_DA+0x48>
  70ebc0:	e3a01002 	mov	r1, #2
  70ebc4:	e5c01000 	strb	r1, [r0]
  70ebc8:	e59f0700 	ldr	r0, [pc, #1792]	; 70f2d0 <noMove_DA+0x4c>
  70ebcc:	e3a01001 	mov	r1, #1
  70ebd0:	e5c01000 	strb	r1, [r0]
  70ebd4:	eb00040f 	bl	70fc18 <drawSquareBlock>

0070ebd8 <finishTester>:
  70ebd8:	e49de004 	pop	{lr}		; (ldr lr, [sp], #4)
  70ebdc:	e1a0f00e 	mov	pc, lr

0070ebe0 <rotate2_BC>:
  70ebe0:	e52de004 	push	{lr}		; (str lr, [sp, #-4]!)
  70ebe4:	e59f06a0 	ldr	r0, [pc, #1696]	; 70f28c <noMove_DA+0x8>
  70ebe8:	e59f26a0 	ldr	r2, [pc, #1696]	; 70f290 <noMove_DA+0xc>
  70ebec:	e5d22000 	ldrb	r2, [r2]
  70ebf0:	e1a01002 	mov	r1, r2
  70ebf4:	e282200a 	add	r2, r2, #10
  70ebf8:	e2422002 	sub	r2, r2, #2
  70ebfc:	ebfff0da 	bl	70af6c <checkIfDifferentLine>
  70ec00:	e3530000 	cmp	r3, #0
  70ec04:	0a000082 	beq	70ee14 <noMove_BC>
  70ec08:	e35200c7 	cmp	r2, #199	; 0xc7
  70ec0c:	ca000080 	bgt	70ee14 <noMove_BC>
  70ec10:	e3520000 	cmp	r2, #0
  70ec14:	ba00007e 	blt	70ee14 <noMove_BC>
  70ec18:	e7d01002 	ldrb	r1, [r0, r2]
  70ec1c:	e3510001 	cmp	r1, #1
  70ec20:	aa00007b 	bge	70ee14 <noMove_BC>
  70ec24:	e59f0660 	ldr	r0, [pc, #1632]	; 70f28c <noMove_DA+0x8>
  70ec28:	e59f2664 	ldr	r2, [pc, #1636]	; 70f294 <noMove_DA+0x10>
  70ec2c:	e5d22000 	ldrb	r2, [r2]
  70ec30:	e1a01002 	mov	r1, r2
  70ec34:	e2822001 	add	r2, r2, #1
  70ec38:	ebfff0cb 	bl	70af6c <checkIfDifferentLine>
  70ec3c:	e3530000 	cmp	r3, #0
  70ec40:	1a000073 	bne	70ee14 <noMove_BC>
  70ec44:	e35200c7 	cmp	r2, #199	; 0xc7
  70ec48:	ca000071 	bgt	70ee14 <noMove_BC>
  70ec4c:	e3520000 	cmp	r2, #0
  70ec50:	ba00006f 	blt	70ee14 <noMove_BC>
  70ec54:	e7d01002 	ldrb	r1, [r0, r2]
  70ec58:	e3510001 	cmp	r1, #1
  70ec5c:	aa00006c 	bge	70ee14 <noMove_BC>
  70ec60:	e59f0624 	ldr	r0, [pc, #1572]	; 70f28c <noMove_DA+0x8>
  70ec64:	e59f2624 	ldr	r2, [pc, #1572]	; 70f290 <noMove_DA+0xc>
  70ec68:	e5d22000 	ldrb	r2, [r2]
  70ec6c:	e3a01000 	mov	r1, #0
  70ec70:	e7c01002 	strb	r1, [r0, r2]
  70ec74:	e59f0610 	ldr	r0, [pc, #1552]	; 70f28c <noMove_DA+0x8>
  70ec78:	e59f2618 	ldr	r2, [pc, #1560]	; 70f298 <noMove_DA+0x14>
  70ec7c:	e5d22000 	ldrb	r2, [r2]
  70ec80:	e3a01000 	mov	r1, #0
  70ec84:	e7c01002 	strb	r1, [r0, r2]
  70ec88:	e59f05fc 	ldr	r0, [pc, #1532]	; 70f28c <noMove_DA+0x8>
  70ec8c:	e59f2608 	ldr	r2, [pc, #1544]	; 70f29c <noMove_DA+0x18>
  70ec90:	e5d22000 	ldrb	r2, [r2]
  70ec94:	e3a01000 	mov	r1, #0
  70ec98:	e7c01002 	strb	r1, [r0, r2]
  70ec9c:	e59f05e8 	ldr	r0, [pc, #1512]	; 70f28c <noMove_DA+0x8>
  70eca0:	e59f25ec 	ldr	r2, [pc, #1516]	; 70f294 <noMove_DA+0x10>
  70eca4:	e5d22000 	ldrb	r2, [r2]
  70eca8:	e3a01000 	mov	r1, #0
  70ecac:	e7c01002 	strb	r1, [r0, r2]
  70ecb0:	eb0003d8 	bl	70fc18 <drawSquareBlock>
  70ecb4:	e59f05d4 	ldr	r0, [pc, #1492]	; 70f290 <noMove_DA+0xc>
  70ecb8:	e5d02000 	ldrb	r2, [r0]
  70ecbc:	e282200a 	add	r2, r2, #10
  70ecc0:	e2422002 	sub	r2, r2, #2
  70ecc4:	e5c02000 	strb	r2, [r0]
  70ecc8:	e59f05c8 	ldr	r0, [pc, #1480]	; 70f298 <noMove_DA+0x14>
  70eccc:	e5d02000 	ldrb	r2, [r0]
  70ecd0:	e59f05c4 	ldr	r0, [pc, #1476]	; 70f29c <noMove_DA+0x18>
  70ecd4:	e5d02000 	ldrb	r2, [r0]
  70ecd8:	e282200a 	add	r2, r2, #10
  70ecdc:	e2422001 	sub	r2, r2, #1
  70ece0:	e5c02000 	strb	r2, [r0]
  70ece4:	e59f05a8 	ldr	r0, [pc, #1448]	; 70f294 <noMove_DA+0x10>
  70ece8:	e5d02000 	ldrb	r2, [r0]
  70ecec:	e2822001 	add	r2, r2, #1
  70ecf0:	e5c02000 	strb	r2, [r0]
  70ecf4:	e59f35a4 	ldr	r3, [pc, #1444]	; 70f2a0 <noMove_DA+0x1c>
  70ecf8:	e5d33000 	ldrb	r3, [r3]
  70ecfc:	e59f2588 	ldr	r2, [pc, #1416]	; 70f28c <noMove_DA+0x8>
  70ed00:	e59f0588 	ldr	r0, [pc, #1416]	; 70f290 <noMove_DA+0xc>
  70ed04:	e5d01000 	ldrb	r1, [r0]
  70ed08:	e7c23001 	strb	r3, [r2, r1]
  70ed0c:	e59f0584 	ldr	r0, [pc, #1412]	; 70f298 <noMove_DA+0x14>
  70ed10:	e5d01000 	ldrb	r1, [r0]
  70ed14:	e7c23001 	strb	r3, [r2, r1]
  70ed18:	e59f057c 	ldr	r0, [pc, #1404]	; 70f29c <noMove_DA+0x18>
  70ed1c:	e5d01000 	ldrb	r1, [r0]
  70ed20:	e7c23001 	strb	r3, [r2, r1]
  70ed24:	e59f0568 	ldr	r0, [pc, #1384]	; 70f294 <noMove_DA+0x10>
  70ed28:	e5d01000 	ldrb	r1, [r0]
  70ed2c:	e7c23001 	strb	r3, [r2, r1]
  70ed30:	e59f056c 	ldr	r0, [pc, #1388]	; 70f2a4 <noMove_DA+0x20>
  70ed34:	e59f3554 	ldr	r3, [pc, #1364]	; 70f290 <noMove_DA+0xc>
  70ed38:	e5d31000 	ldrb	r1, [r3]
  70ed3c:	e5c01000 	strb	r1, [r0]
  70ed40:	e3a010ff 	mov	r1, #255	; 0xff
  70ed44:	e5c01001 	strb	r1, [r0, #1]
  70ed48:	e59f354c 	ldr	r3, [pc, #1356]	; 70f29c <noMove_DA+0x18>
  70ed4c:	e5d31000 	ldrb	r1, [r3]
  70ed50:	e5c01002 	strb	r1, [r0, #2]
  70ed54:	e59f3538 	ldr	r3, [pc, #1336]	; 70f294 <noMove_DA+0x10>
  70ed58:	e5d31000 	ldrb	r1, [r3]
  70ed5c:	e5c01003 	strb	r1, [r0, #3]
  70ed60:	e59f0540 	ldr	r0, [pc, #1344]	; 70f2a8 <noMove_DA+0x24>
  70ed64:	e59f3524 	ldr	r3, [pc, #1316]	; 70f290 <noMove_DA+0xc>
  70ed68:	e5d31000 	ldrb	r1, [r3]
  70ed6c:	e5c01000 	strb	r1, [r0]
  70ed70:	e3a010ff 	mov	r1, #255	; 0xff
  70ed74:	e5c01001 	strb	r1, [r0, #1]
  70ed78:	e59f351c 	ldr	r3, [pc, #1308]	; 70f29c <noMove_DA+0x18>
  70ed7c:	e5d31000 	ldrb	r1, [r3]
  70ed80:	e5c01002 	strb	r1, [r0, #2]
  70ed84:	e3a010ff 	mov	r1, #255	; 0xff
  70ed88:	e5c01003 	strb	r1, [r0, #3]
  70ed8c:	e59f0518 	ldr	r0, [pc, #1304]	; 70f2ac <noMove_DA+0x28>
  70ed90:	e59f3500 	ldr	r3, [pc, #1280]	; 70f298 <noMove_DA+0x14>
  70ed94:	e5d31000 	ldrb	r1, [r3]
  70ed98:	e5c01000 	strb	r1, [r0]
  70ed9c:	e3a010ff 	mov	r1, #255	; 0xff
  70eda0:	e5c01001 	strb	r1, [r0, #1]
  70eda4:	e59f34e8 	ldr	r3, [pc, #1256]	; 70f294 <noMove_DA+0x10>
  70eda8:	e5d31000 	ldrb	r1, [r3]
  70edac:	e5c01002 	strb	r1, [r0, #2]
  70edb0:	e3a010ff 	mov	r1, #255	; 0xff
  70edb4:	e5c01003 	strb	r1, [r0, #3]
  70edb8:	e59f3514 	ldr	r3, [pc, #1300]	; 70f2d4 <noMove_DA+0x50>
  70edbc:	e59f24f0 	ldr	r2, [pc, #1264]	; 70f2b4 <noMove_DA+0x30>
  70edc0:	e5823000 	str	r3, [r2]
  70edc4:	e59f350c 	ldr	r3, [pc, #1292]	; 70f2d8 <noMove_DA+0x54>
  70edc8:	e59f24ec 	ldr	r2, [pc, #1260]	; 70f2bc <noMove_DA+0x38>
  70edcc:	e5823000 	str	r3, [r2]
  70edd0:	e3a03060 	mov	r3, #96	; 0x60
  70edd4:	e59f24e4 	ldr	r2, [pc, #1252]	; 70f2c0 <noMove_DA+0x3c>
  70edd8:	e5c23000 	strb	r3, [r2]
  70eddc:	e3a03040 	mov	r3, #64	; 0x40
  70ede0:	e59f54dc 	ldr	r5, [pc, #1244]	; 70f2c4 <noMove_DA+0x40>
  70ede4:	e5c53000 	strb	r3, [r5]
  70ede8:	e59f04d8 	ldr	r0, [pc, #1240]	; 70f2c8 <noMove_DA+0x44>
  70edec:	e5d01000 	ldrb	r1, [r0]
  70edf0:	e2411001 	sub	r1, r1, #1
  70edf4:	e5c01000 	strb	r1, [r0]
  70edf8:	e59f04cc 	ldr	r0, [pc, #1228]	; 70f2cc <noMove_DA+0x48>
  70edfc:	e3a01003 	mov	r1, #3
  70ee00:	e5c01000 	strb	r1, [r0]
  70ee04:	e59f04c4 	ldr	r0, [pc, #1220]	; 70f2d0 <noMove_DA+0x4c>
  70ee08:	e3a01002 	mov	r1, #2
  70ee0c:	e5c01000 	strb	r1, [r0]
  70ee10:	eb000380 	bl	70fc18 <drawSquareBlock>

0070ee14 <noMove_BC>:
  70ee14:	e49de004 	pop	{lr}		; (ldr lr, [sp], #4)
  70ee18:	e1a0f00e 	mov	pc, lr

0070ee1c <rotate2_CD>:
  70ee1c:	e52de004 	push	{lr}		; (str lr, [sp, #-4]!)
  70ee20:	e59f0464 	ldr	r0, [pc, #1124]	; 70f28c <noMove_DA+0x8>
  70ee24:	e59f2464 	ldr	r2, [pc, #1124]	; 70f290 <noMove_DA+0xc>
  70ee28:	e5d22000 	ldrb	r2, [r2]
  70ee2c:	e1a01002 	mov	r1, r2
  70ee30:	e242200a 	sub	r2, r2, #10
  70ee34:	e2822001 	add	r2, r2, #1
  70ee38:	ebfff04b 	bl	70af6c <checkIfDifferentLine>
  70ee3c:	e3530000 	cmp	r3, #0
  70ee40:	0a000082 	beq	70f050 <noMove_CD>
  70ee44:	e35200c7 	cmp	r2, #199	; 0xc7
  70ee48:	ca000080 	bgt	70f050 <noMove_CD>
  70ee4c:	e3520000 	cmp	r2, #0
  70ee50:	ba00007e 	blt	70f050 <noMove_CD>
  70ee54:	e7d01002 	ldrb	r1, [r0, r2]
  70ee58:	e3510001 	cmp	r1, #1
  70ee5c:	aa00007b 	bge	70f050 <noMove_CD>
  70ee60:	e59f0424 	ldr	r0, [pc, #1060]	; 70f28c <noMove_DA+0x8>
  70ee64:	e59f2428 	ldr	r2, [pc, #1064]	; 70f294 <noMove_DA+0x10>
  70ee68:	e5d22000 	ldrb	r2, [r2]
  70ee6c:	e1a01002 	mov	r1, r2
  70ee70:	e2422002 	sub	r2, r2, #2
  70ee74:	ebfff03c 	bl	70af6c <checkIfDifferentLine>
  70ee78:	e3530000 	cmp	r3, #0
  70ee7c:	1a000073 	bne	70f050 <noMove_CD>
  70ee80:	e35200c7 	cmp	r2, #199	; 0xc7
  70ee84:	ca000071 	bgt	70f050 <noMove_CD>
  70ee88:	e3520000 	cmp	r2, #0
  70ee8c:	ba00006f 	blt	70f050 <noMove_CD>
  70ee90:	e7d01002 	ldrb	r1, [r0, r2]
  70ee94:	e3510001 	cmp	r1, #1
  70ee98:	aa00006c 	bge	70f050 <noMove_CD>
  70ee9c:	e59f03e8 	ldr	r0, [pc, #1000]	; 70f28c <noMove_DA+0x8>
  70eea0:	e59f23e8 	ldr	r2, [pc, #1000]	; 70f290 <noMove_DA+0xc>
  70eea4:	e5d22000 	ldrb	r2, [r2]
  70eea8:	e3a01000 	mov	r1, #0
  70eeac:	e7c01002 	strb	r1, [r0, r2]
  70eeb0:	e59f03d4 	ldr	r0, [pc, #980]	; 70f28c <noMove_DA+0x8>
  70eeb4:	e59f23dc 	ldr	r2, [pc, #988]	; 70f298 <noMove_DA+0x14>
  70eeb8:	e5d22000 	ldrb	r2, [r2]
  70eebc:	e3a01000 	mov	r1, #0
  70eec0:	e7c01002 	strb	r1, [r0, r2]
  70eec4:	e59f03c0 	ldr	r0, [pc, #960]	; 70f28c <noMove_DA+0x8>
  70eec8:	e59f23cc 	ldr	r2, [pc, #972]	; 70f29c <noMove_DA+0x18>
  70eecc:	e5d22000 	ldrb	r2, [r2]
  70eed0:	e3a01000 	mov	r1, #0
  70eed4:	e7c01002 	strb	r1, [r0, r2]
  70eed8:	e59f03ac 	ldr	r0, [pc, #940]	; 70f28c <noMove_DA+0x8>
  70eedc:	e59f23b0 	ldr	r2, [pc, #944]	; 70f294 <noMove_DA+0x10>
  70eee0:	e5d22000 	ldrb	r2, [r2]
  70eee4:	e3a01000 	mov	r1, #0
  70eee8:	e7c01002 	strb	r1, [r0, r2]
  70eeec:	eb000349 	bl	70fc18 <drawSquareBlock>
  70eef0:	e59f0398 	ldr	r0, [pc, #920]	; 70f290 <noMove_DA+0xc>
  70eef4:	e5d02000 	ldrb	r2, [r0]
  70eef8:	e242200a 	sub	r2, r2, #10
  70eefc:	e2822001 	add	r2, r2, #1
  70ef00:	e5c02000 	strb	r2, [r0]
  70ef04:	e59f038c 	ldr	r0, [pc, #908]	; 70f298 <noMove_DA+0x14>
  70ef08:	e5d02000 	ldrb	r2, [r0]
  70ef0c:	e2422001 	sub	r2, r2, #1
  70ef10:	e5c02000 	strb	r2, [r0]
  70ef14:	e59f0380 	ldr	r0, [pc, #896]	; 70f29c <noMove_DA+0x18>
  70ef18:	e5d02000 	ldrb	r2, [r0]
  70ef1c:	e242200a 	sub	r2, r2, #10
  70ef20:	e5c02000 	strb	r2, [r0]
  70ef24:	e59f0368 	ldr	r0, [pc, #872]	; 70f294 <noMove_DA+0x10>
  70ef28:	e5d02000 	ldrb	r2, [r0]
  70ef2c:	e2422002 	sub	r2, r2, #2
  70ef30:	e5c02000 	strb	r2, [r0]
  70ef34:	e59f3364 	ldr	r3, [pc, #868]	; 70f2a0 <noMove_DA+0x1c>
  70ef38:	e5d33000 	ldrb	r3, [r3]
  70ef3c:	e59f2348 	ldr	r2, [pc, #840]	; 70f28c <noMove_DA+0x8>
  70ef40:	e59f0348 	ldr	r0, [pc, #840]	; 70f290 <noMove_DA+0xc>
  70ef44:	e5d01000 	ldrb	r1, [r0]
  70ef48:	e7c23001 	strb	r3, [r2, r1]
  70ef4c:	e59f0344 	ldr	r0, [pc, #836]	; 70f298 <noMove_DA+0x14>
  70ef50:	e5d01000 	ldrb	r1, [r0]
  70ef54:	e7c23001 	strb	r3, [r2, r1]
  70ef58:	e59f033c 	ldr	r0, [pc, #828]	; 70f29c <noMove_DA+0x18>
  70ef5c:	e5d01000 	ldrb	r1, [r0]
  70ef60:	e7c23001 	strb	r3, [r2, r1]
  70ef64:	e59f0328 	ldr	r0, [pc, #808]	; 70f294 <noMove_DA+0x10>
  70ef68:	e5d01000 	ldrb	r1, [r0]
  70ef6c:	e7c23001 	strb	r3, [r2, r1]
  70ef70:	e59f032c 	ldr	r0, [pc, #812]	; 70f2a4 <noMove_DA+0x20>
  70ef74:	e3a010ff 	mov	r1, #255	; 0xff
  70ef78:	e5c01000 	strb	r1, [r0]
  70ef7c:	e3a010ff 	mov	r1, #255	; 0xff
  70ef80:	e5c01001 	strb	r1, [r0, #1]
  70ef84:	e59f3310 	ldr	r3, [pc, #784]	; 70f29c <noMove_DA+0x18>
  70ef88:	e5d31000 	ldrb	r1, [r3]
  70ef8c:	e5c01002 	strb	r1, [r0, #2]
  70ef90:	e59f32fc 	ldr	r3, [pc, #764]	; 70f294 <noMove_DA+0x10>
  70ef94:	e5d31000 	ldrb	r1, [r3]
  70ef98:	e5c01003 	strb	r1, [r0, #3]
  70ef9c:	e59f0304 	ldr	r0, [pc, #772]	; 70f2a8 <noMove_DA+0x24>
  70efa0:	e59f32e8 	ldr	r3, [pc, #744]	; 70f290 <noMove_DA+0xc>
  70efa4:	e5d31000 	ldrb	r1, [r3]
  70efa8:	e5c01000 	strb	r1, [r0]
  70efac:	e59f32e4 	ldr	r3, [pc, #740]	; 70f298 <noMove_DA+0x14>
  70efb0:	e5d31000 	ldrb	r1, [r3]
  70efb4:	e5c01001 	strb	r1, [r0, #1]
  70efb8:	e3a010ff 	mov	r1, #255	; 0xff
  70efbc:	e5c01002 	strb	r1, [r0, #2]
  70efc0:	e59f32cc 	ldr	r3, [pc, #716]	; 70f294 <noMove_DA+0x10>
  70efc4:	e5d31000 	ldrb	r1, [r3]
  70efc8:	e5c01003 	strb	r1, [r0, #3]
  70efcc:	e59f02d8 	ldr	r0, [pc, #728]	; 70f2ac <noMove_DA+0x28>
  70efd0:	e59f32b8 	ldr	r3, [pc, #696]	; 70f290 <noMove_DA+0xc>
  70efd4:	e5d31000 	ldrb	r1, [r3]
  70efd8:	e5c01000 	strb	r1, [r0]
  70efdc:	e3a010ff 	mov	r1, #255	; 0xff
  70efe0:	e5c01001 	strb	r1, [r0, #1]
  70efe4:	e59f32b0 	ldr	r3, [pc, #688]	; 70f29c <noMove_DA+0x18>
  70efe8:	e5d31000 	ldrb	r1, [r3]
  70efec:	e5c01002 	strb	r1, [r0, #2]
  70eff0:	e59f329c 	ldr	r3, [pc, #668]	; 70f294 <noMove_DA+0x10>
  70eff4:	e5d31000 	ldrb	r1, [r3]
  70eff8:	e5c01003 	strb	r1, [r0, #3]
  70effc:	e59f32ac 	ldr	r3, [pc, #684]	; 70f2b0 <noMove_DA+0x2c>
  70f000:	e59f22ac 	ldr	r2, [pc, #684]	; 70f2b4 <noMove_DA+0x30>
  70f004:	e5823000 	str	r3, [r2]
  70f008:	e59f32a8 	ldr	r3, [pc, #680]	; 70f2b8 <noMove_DA+0x34>
  70f00c:	e59f22a8 	ldr	r2, [pc, #680]	; 70f2bc <noMove_DA+0x38>
  70f010:	e5823000 	str	r3, [r2]
  70f014:	e3a03040 	mov	r3, #64	; 0x40
  70f018:	e59f22a0 	ldr	r2, [pc, #672]	; 70f2c0 <noMove_DA+0x3c>
  70f01c:	e5c23000 	strb	r3, [r2]
  70f020:	e3a03060 	mov	r3, #96	; 0x60
  70f024:	e59f5298 	ldr	r5, [pc, #664]	; 70f2c4 <noMove_DA+0x40>
  70f028:	e5c53000 	strb	r3, [r5]
  70f02c:	e59f0294 	ldr	r0, [pc, #660]	; 70f2c8 <noMove_DA+0x44>
  70f030:	e5d01000 	ldrb	r1, [r0]
  70f034:	e59f0290 	ldr	r0, [pc, #656]	; 70f2cc <noMove_DA+0x48>
  70f038:	e3a01002 	mov	r1, #2
  70f03c:	e5c01000 	strb	r1, [r0]
  70f040:	e59f0288 	ldr	r0, [pc, #648]	; 70f2d0 <noMove_DA+0x4c>
  70f044:	e3a01003 	mov	r1, #3
  70f048:	e5c01000 	strb	r1, [r0]
  70f04c:	eb0002f1 	bl	70fc18 <drawSquareBlock>

0070f050 <noMove_CD>:
  70f050:	e49de004 	pop	{lr}		; (ldr lr, [sp], #4)
  70f054:	e1a0f00e 	mov	pc, lr

0070f058 <rotate2_DA>:
  70f058:	e52de004 	push	{lr}		; (str lr, [sp, #-4]!)
  70f05c:	e59f0228 	ldr	r0, [pc, #552]	; 70f28c <noMove_DA+0x8>
  70f060:	e59f2228 	ldr	r2, [pc, #552]	; 70f290 <noMove_DA+0xc>
  70f064:	e5d22000 	ldrb	r2, [r2]
  70f068:	e1a01002 	mov	r1, r2
  70f06c:	e2422001 	sub	r2, r2, #1
  70f070:	ebffefbd 	bl	70af6c <checkIfDifferentLine>
  70f074:	e3530000 	cmp	r3, #0
  70f078:	1a000081 	bne	70f284 <noMove_DA>
  70f07c:	e35200c7 	cmp	r2, #199	; 0xc7
  70f080:	ca00007f 	bgt	70f284 <noMove_DA>
  70f084:	e3520000 	cmp	r2, #0
  70f088:	ba00007d 	blt	70f284 <noMove_DA>
  70f08c:	e7d01002 	ldrb	r1, [r0, r2]
  70f090:	e3510001 	cmp	r1, #1
  70f094:	aa00007a 	bge	70f284 <noMove_DA>
  70f098:	e59f01ec 	ldr	r0, [pc, #492]	; 70f28c <noMove_DA+0x8>
  70f09c:	e59f21f0 	ldr	r2, [pc, #496]	; 70f294 <noMove_DA+0x10>
  70f0a0:	e5d22000 	ldrb	r2, [r2]
  70f0a4:	e1a01002 	mov	r1, r2
  70f0a8:	e242200a 	sub	r2, r2, #10
  70f0ac:	e2822002 	add	r2, r2, #2
  70f0b0:	ebffefad 	bl	70af6c <checkIfDifferentLine>
  70f0b4:	e3530000 	cmp	r3, #0
  70f0b8:	0a000071 	beq	70f284 <noMove_DA>
  70f0bc:	e35200c7 	cmp	r2, #199	; 0xc7
  70f0c0:	ca00006f 	bgt	70f284 <noMove_DA>
  70f0c4:	e3520000 	cmp	r2, #0
  70f0c8:	ba00006d 	blt	70f284 <noMove_DA>
  70f0cc:	e7d01002 	ldrb	r1, [r0, r2]
  70f0d0:	e3510001 	cmp	r1, #1
  70f0d4:	aa00006a 	bge	70f284 <noMove_DA>
  70f0d8:	e59f01ac 	ldr	r0, [pc, #428]	; 70f28c <noMove_DA+0x8>
  70f0dc:	e59f21ac 	ldr	r2, [pc, #428]	; 70f290 <noMove_DA+0xc>
  70f0e0:	e5d22000 	ldrb	r2, [r2]
  70f0e4:	e3a01000 	mov	r1, #0
  70f0e8:	e7c01002 	strb	r1, [r0, r2]
  70f0ec:	e59f0198 	ldr	r0, [pc, #408]	; 70f28c <noMove_DA+0x8>
  70f0f0:	e59f21a0 	ldr	r2, [pc, #416]	; 70f298 <noMove_DA+0x14>
  70f0f4:	e5d22000 	ldrb	r2, [r2]
  70f0f8:	e3a01000 	mov	r1, #0
  70f0fc:	e7c01002 	strb	r1, [r0, r2]
  70f100:	e59f0184 	ldr	r0, [pc, #388]	; 70f28c <noMove_DA+0x8>
  70f104:	e59f2190 	ldr	r2, [pc, #400]	; 70f29c <noMove_DA+0x18>
  70f108:	e5d22000 	ldrb	r2, [r2]
  70f10c:	e3a01000 	mov	r1, #0
  70f110:	e7c01002 	strb	r1, [r0, r2]
  70f114:	e59f0170 	ldr	r0, [pc, #368]	; 70f28c <noMove_DA+0x8>
  70f118:	e59f2174 	ldr	r2, [pc, #372]	; 70f294 <noMove_DA+0x10>
  70f11c:	e5d22000 	ldrb	r2, [r2]
  70f120:	e3a01000 	mov	r1, #0
  70f124:	e7c01002 	strb	r1, [r0, r2]
  70f128:	eb0002ba 	bl	70fc18 <drawSquareBlock>
  70f12c:	e59f015c 	ldr	r0, [pc, #348]	; 70f290 <noMove_DA+0xc>
  70f130:	e5d02000 	ldrb	r2, [r0]
  70f134:	e2422001 	sub	r2, r2, #1
  70f138:	e5c02000 	strb	r2, [r0]
  70f13c:	e59f0154 	ldr	r0, [pc, #340]	; 70f298 <noMove_DA+0x14>
  70f140:	e5d02000 	ldrb	r2, [r0]
  70f144:	e242200a 	sub	r2, r2, #10
  70f148:	e2822001 	add	r2, r2, #1
  70f14c:	e5c02000 	strb	r2, [r0]
  70f150:	e59f0144 	ldr	r0, [pc, #324]	; 70f29c <noMove_DA+0x18>
  70f154:	e5d02000 	ldrb	r2, [r0]
  70f158:	e59f0134 	ldr	r0, [pc, #308]	; 70f294 <noMove_DA+0x10>
  70f15c:	e5d02000 	ldrb	r2, [r0]
  70f160:	e242200a 	sub	r2, r2, #10
  70f164:	e2822002 	add	r2, r2, #2
  70f168:	e5c02000 	strb	r2, [r0]
  70f16c:	e59f312c 	ldr	r3, [pc, #300]	; 70f2a0 <noMove_DA+0x1c>
  70f170:	e5d33000 	ldrb	r3, [r3]
  70f174:	e59f2110 	ldr	r2, [pc, #272]	; 70f28c <noMove_DA+0x8>
  70f178:	e59f0110 	ldr	r0, [pc, #272]	; 70f290 <noMove_DA+0xc>
  70f17c:	e5d01000 	ldrb	r1, [r0]
  70f180:	e7c23001 	strb	r3, [r2, r1]
  70f184:	e59f010c 	ldr	r0, [pc, #268]	; 70f298 <noMove_DA+0x14>
  70f188:	e5d01000 	ldrb	r1, [r0]
  70f18c:	e7c23001 	strb	r3, [r2, r1]
  70f190:	e59f0104 	ldr	r0, [pc, #260]	; 70f29c <noMove_DA+0x18>
  70f194:	e5d01000 	ldrb	r1, [r0]
  70f198:	e7c23001 	strb	r3, [r2, r1]
  70f19c:	e59f00f0 	ldr	r0, [pc, #240]	; 70f294 <noMove_DA+0x10>
  70f1a0:	e5d01000 	ldrb	r1, [r0]
  70f1a4:	e7c23001 	strb	r3, [r2, r1]
  70f1a8:	e59f00f4 	ldr	r0, [pc, #244]	; 70f2a4 <noMove_DA+0x20>
  70f1ac:	e59f30dc 	ldr	r3, [pc, #220]	; 70f290 <noMove_DA+0xc>
  70f1b0:	e5d31000 	ldrb	r1, [r3]
  70f1b4:	e5c01000 	strb	r1, [r0]
  70f1b8:	e3a010ff 	mov	r1, #255	; 0xff
  70f1bc:	e5c01001 	strb	r1, [r0, #1]
  70f1c0:	e59f30d4 	ldr	r3, [pc, #212]	; 70f29c <noMove_DA+0x18>
  70f1c4:	e5d31000 	ldrb	r1, [r3]
  70f1c8:	e5c01002 	strb	r1, [r0, #2]
  70f1cc:	e59f30c0 	ldr	r3, [pc, #192]	; 70f294 <noMove_DA+0x10>
  70f1d0:	e5d31000 	ldrb	r1, [r3]
  70f1d4:	e5c01003 	strb	r1, [r0, #3]
  70f1d8:	e59f00c8 	ldr	r0, [pc, #200]	; 70f2a8 <noMove_DA+0x24>
  70f1dc:	e59f30ac 	ldr	r3, [pc, #172]	; 70f290 <noMove_DA+0xc>
  70f1e0:	e5d31000 	ldrb	r1, [r3]
  70f1e4:	e5c01000 	strb	r1, [r0]
  70f1e8:	e3a010ff 	mov	r1, #255	; 0xff
  70f1ec:	e5c01001 	strb	r1, [r0, #1]
  70f1f0:	e59f30a4 	ldr	r3, [pc, #164]	; 70f29c <noMove_DA+0x18>
  70f1f4:	e5d31000 	ldrb	r1, [r3]
  70f1f8:	e5c01002 	strb	r1, [r0, #2]
  70f1fc:	e3a010ff 	mov	r1, #255	; 0xff
  70f200:	e5c01003 	strb	r1, [r0, #3]
  70f204:	e59f00a0 	ldr	r0, [pc, #160]	; 70f2ac <noMove_DA+0x28>
  70f208:	e3a010ff 	mov	r1, #255	; 0xff
  70f20c:	e5c01000 	strb	r1, [r0]
  70f210:	e59f3080 	ldr	r3, [pc, #128]	; 70f298 <noMove_DA+0x14>
  70f214:	e5d31000 	ldrb	r1, [r3]
  70f218:	e5c01001 	strb	r1, [r0, #1]
  70f21c:	e3a010ff 	mov	r1, #255	; 0xff
  70f220:	e5c01002 	strb	r1, [r0, #2]
  70f224:	e59f3068 	ldr	r3, [pc, #104]	; 70f294 <noMove_DA+0x10>
  70f228:	e5d31000 	ldrb	r1, [r3]
  70f22c:	e5c01003 	strb	r1, [r0, #3]
  70f230:	e59f309c 	ldr	r3, [pc, #156]	; 70f2d4 <noMove_DA+0x50>
  70f234:	e59f2078 	ldr	r2, [pc, #120]	; 70f2b4 <noMove_DA+0x30>
  70f238:	e5823000 	str	r3, [r2]
  70f23c:	e59f3094 	ldr	r3, [pc, #148]	; 70f2d8 <noMove_DA+0x54>
  70f240:	e59f2074 	ldr	r2, [pc, #116]	; 70f2bc <noMove_DA+0x38>
  70f244:	e5823000 	str	r3, [r2]
  70f248:	e3a03060 	mov	r3, #96	; 0x60
  70f24c:	e59f206c 	ldr	r2, [pc, #108]	; 70f2c0 <noMove_DA+0x3c>
  70f250:	e5c23000 	strb	r3, [r2]
  70f254:	e3a03040 	mov	r3, #64	; 0x40
  70f258:	e59f5064 	ldr	r5, [pc, #100]	; 70f2c4 <noMove_DA+0x40>
  70f25c:	e5c53000 	strb	r3, [r5]
  70f260:	e59f0060 	ldr	r0, [pc, #96]	; 70f2c8 <noMove_DA+0x44>
  70f264:	e5d01000 	ldrb	r1, [r0]
  70f268:	e59f005c 	ldr	r0, [pc, #92]	; 70f2cc <noMove_DA+0x48>
  70f26c:	e3a01003 	mov	r1, #3
  70f270:	e5c01000 	strb	r1, [r0]
  70f274:	e59f0054 	ldr	r0, [pc, #84]	; 70f2d0 <noMove_DA+0x4c>
  70f278:	e3a01000 	mov	r1, #0
  70f27c:	e5c01000 	strb	r1, [r0]
  70f280:	eb000264 	bl	70fc18 <drawSquareBlock>

0070f284 <noMove_DA>:
  70f284:	e49de004 	pop	{lr}		; (ldr lr, [sp], #4)
  70f288:	e1a0f00e 	mov	pc, lr
  70f28c:	006c4e98 	.word	0x006c4e98
  70f290:	006c4f60 	.word	0x006c4f60
  70f294:	006c4f63 	.word	0x006c4f63
  70f298:	006c4f61 	.word	0x006c4f61
  70f29c:	006c4f62 	.word	0x006c4f62
  70f2a0:	006c4f7c 	.word	0x006c4f7c
  70f2a4:	006c4f64 	.word	0x006c4f64
  70f2a8:	006c4f68 	.word	0x006c4f68
  70f2ac:	006c4f6c 	.word	0x006c4f6c
  70f2b0:	00672e98 	.word	0x00672e98
  70f2b4:	006c4f70 	.word	0x006c4f70
  70f2b8:	00675e98 	.word	0x00675e98
  70f2bc:	006c4f74 	.word	0x006c4f74
  70f2c0:	006c4f78 	.word	0x006c4f78
  70f2c4:	006c4f79 	.word	0x006c4f79
  70f2c8:	006c4f7a 	.word	0x006c4f7a
  70f2cc:	006c4f7b 	.word	0x006c4f7b
  70f2d0:	006c4f7d 	.word	0x006c4f7d
  70f2d4:	0066ce98 	.word	0x0066ce98
  70f2d8:	0066fe98 	.word	0x0066fe98

0070f2dc <rotate1_AB>:
  70f2dc:	e52de004 	push	{lr}		; (str lr, [sp, #-4]!)
  70f2e0:	e59f08e0 	ldr	r0, [pc, #2272]	; 70fbc8 <noMove_DA+0x8>
  70f2e4:	e59f28e0 	ldr	r2, [pc, #2272]	; 70fbcc <noMove_DA+0xc>
  70f2e8:	e5d22000 	ldrb	r2, [r2]
  70f2ec:	e1a01002 	mov	r1, r2
  70f2f0:	e2822002 	add	r2, r2, #2
  70f2f4:	ebffef1c 	bl	70af6c <checkIfDifferentLine>
  70f2f8:	e3530000 	cmp	r3, #0
  70f2fc:	1a000083 	bne	70f510 <noMove_AB>
  70f300:	e35200c7 	cmp	r2, #199	; 0xc7
  70f304:	ca000081 	bgt	70f510 <noMove_AB>
  70f308:	e3520000 	cmp	r2, #0
  70f30c:	ba00007f 	blt	70f510 <noMove_AB>
  70f310:	e7d01002 	ldrb	r1, [r0, r2]
  70f314:	e3510001 	cmp	r1, #1
  70f318:	aa00007c 	bge	70f510 <noMove_AB>
  70f31c:	e59f08a4 	ldr	r0, [pc, #2212]	; 70fbc8 <noMove_DA+0x8>
  70f320:	e59f28a8 	ldr	r2, [pc, #2216]	; 70fbd0 <noMove_DA+0x10>
  70f324:	e5d22000 	ldrb	r2, [r2]
  70f328:	e1a01002 	mov	r1, r2
  70f32c:	e282200a 	add	r2, r2, #10
  70f330:	e2822001 	add	r2, r2, #1
  70f334:	ebffef0c 	bl	70af6c <checkIfDifferentLine>
  70f338:	e3530000 	cmp	r3, #0
  70f33c:	0a000073 	beq	70f510 <noMove_AB>
  70f340:	e35200c7 	cmp	r2, #199	; 0xc7
  70f344:	ca000071 	bgt	70f510 <noMove_AB>
  70f348:	e3520000 	cmp	r2, #0
  70f34c:	ba00006f 	blt	70f510 <noMove_AB>
  70f350:	e7d01002 	ldrb	r1, [r0, r2]
  70f354:	e3510001 	cmp	r1, #1
  70f358:	aa00006c 	bge	70f510 <noMove_AB>
  70f35c:	e59f0864 	ldr	r0, [pc, #2148]	; 70fbc8 <noMove_DA+0x8>
  70f360:	e59f286c 	ldr	r2, [pc, #2156]	; 70fbd4 <noMove_DA+0x14>
  70f364:	e5d22000 	ldrb	r2, [r2]
  70f368:	e3a01000 	mov	r1, #0
  70f36c:	e7c01002 	strb	r1, [r0, r2]
  70f370:	e59f0850 	ldr	r0, [pc, #2128]	; 70fbc8 <noMove_DA+0x8>
  70f374:	e59f285c 	ldr	r2, [pc, #2140]	; 70fbd8 <noMove_DA+0x18>
  70f378:	e5d22000 	ldrb	r2, [r2]
  70f37c:	e3a01000 	mov	r1, #0
  70f380:	e7c01002 	strb	r1, [r0, r2]
  70f384:	e59f083c 	ldr	r0, [pc, #2108]	; 70fbc8 <noMove_DA+0x8>
  70f388:	e59f283c 	ldr	r2, [pc, #2108]	; 70fbcc <noMove_DA+0xc>
  70f38c:	e5d22000 	ldrb	r2, [r2]
  70f390:	e3a01000 	mov	r1, #0
  70f394:	e7c01002 	strb	r1, [r0, r2]
  70f398:	e59f0828 	ldr	r0, [pc, #2088]	; 70fbc8 <noMove_DA+0x8>
  70f39c:	e59f282c 	ldr	r2, [pc, #2092]	; 70fbd0 <noMove_DA+0x10>
  70f3a0:	e5d22000 	ldrb	r2, [r2]
  70f3a4:	e3a01000 	mov	r1, #0
  70f3a8:	e7c01002 	strb	r1, [r0, r2]
  70f3ac:	eb000219 	bl	70fc18 <drawSquareBlock>
  70f3b0:	e59f081c 	ldr	r0, [pc, #2076]	; 70fbd4 <noMove_DA+0x14>
  70f3b4:	e5d02000 	ldrb	r2, [r0]
  70f3b8:	e59f0818 	ldr	r0, [pc, #2072]	; 70fbd8 <noMove_DA+0x18>
  70f3bc:	e5d02000 	ldrb	r2, [r0]
  70f3c0:	e282200a 	add	r2, r2, #10
  70f3c4:	e2422001 	sub	r2, r2, #1
  70f3c8:	e5c02000 	strb	r2, [r0]
  70f3cc:	e59f07f8 	ldr	r0, [pc, #2040]	; 70fbcc <noMove_DA+0xc>
  70f3d0:	e5d02000 	ldrb	r2, [r0]
  70f3d4:	e2822002 	add	r2, r2, #2
  70f3d8:	e5c02000 	strb	r2, [r0]
  70f3dc:	e59f07ec 	ldr	r0, [pc, #2028]	; 70fbd0 <noMove_DA+0x10>
  70f3e0:	e5d02000 	ldrb	r2, [r0]
  70f3e4:	e282200a 	add	r2, r2, #10
  70f3e8:	e2822001 	add	r2, r2, #1
  70f3ec:	e5c02000 	strb	r2, [r0]
  70f3f0:	e59f37e4 	ldr	r3, [pc, #2020]	; 70fbdc <noMove_DA+0x1c>
  70f3f4:	e5933000 	ldr	r3, [r3]
  70f3f8:	e59f27c8 	ldr	r2, [pc, #1992]	; 70fbc8 <noMove_DA+0x8>
  70f3fc:	e59f07d0 	ldr	r0, [pc, #2000]	; 70fbd4 <noMove_DA+0x14>
  70f400:	e5d01000 	ldrb	r1, [r0]
  70f404:	e7c23001 	strb	r3, [r2, r1]
  70f408:	e59f07c8 	ldr	r0, [pc, #1992]	; 70fbd8 <noMove_DA+0x18>
  70f40c:	e5d01000 	ldrb	r1, [r0]
  70f410:	e7c23001 	strb	r3, [r2, r1]
  70f414:	e59f07b0 	ldr	r0, [pc, #1968]	; 70fbcc <noMove_DA+0xc>
  70f418:	e5d01000 	ldrb	r1, [r0]
  70f41c:	e7c23001 	strb	r3, [r2, r1]
  70f420:	e59f07a8 	ldr	r0, [pc, #1960]	; 70fbd0 <noMove_DA+0x10>
  70f424:	e5d01000 	ldrb	r1, [r0]
  70f428:	e7c23001 	strb	r3, [r2, r1]
  70f42c:	e59f07ac 	ldr	r0, [pc, #1964]	; 70fbe0 <noMove_DA+0x20>
  70f430:	e3a010ff 	mov	r1, #255	; 0xff
  70f434:	e5c01000 	strb	r1, [r0]
  70f438:	e3a010ff 	mov	r1, #255	; 0xff
  70f43c:	e5c01001 	strb	r1, [r0, #1]
  70f440:	e59f1790 	ldr	r1, [pc, #1936]	; 70fbd8 <noMove_DA+0x18>
  70f444:	e5d11000 	ldrb	r1, [r1]
  70f448:	e5c01002 	strb	r1, [r0, #2]
  70f44c:	e59f177c 	ldr	r1, [pc, #1916]	; 70fbd0 <noMove_DA+0x10>
  70f450:	e5d11000 	ldrb	r1, [r1]
  70f454:	e5c01003 	strb	r1, [r0, #3]
  70f458:	e59f0784 	ldr	r0, [pc, #1924]	; 70fbe4 <noMove_DA+0x24>
  70f45c:	e59f1770 	ldr	r1, [pc, #1904]	; 70fbd4 <noMove_DA+0x14>
  70f460:	e5d11000 	ldrb	r1, [r1]
  70f464:	e5c01000 	strb	r1, [r0]
  70f468:	e59f1768 	ldr	r1, [pc, #1896]	; 70fbd8 <noMove_DA+0x18>
  70f46c:	e5c01001 	strb	r1, [r0, #1]
  70f470:	e3a010ff 	mov	r1, #255	; 0xff
  70f474:	e5c01002 	strb	r1, [r0, #2]
  70f478:	e59f1750 	ldr	r1, [pc, #1872]	; 70fbd0 <noMove_DA+0x10>
  70f47c:	e5d11000 	ldrb	r1, [r1]
  70f480:	e5c01003 	strb	r1, [r0, #3]
  70f484:	e59f075c 	ldr	r0, [pc, #1884]	; 70fbe8 <noMove_DA+0x28>
  70f488:	e59f1744 	ldr	r1, [pc, #1860]	; 70fbd4 <noMove_DA+0x14>
  70f48c:	e5d11000 	ldrb	r1, [r1]
  70f490:	e5c01000 	strb	r1, [r0]
  70f494:	e3a010ff 	mov	r1, #255	; 0xff
  70f498:	e5c01001 	strb	r1, [r0, #1]
  70f49c:	e59f1728 	ldr	r1, [pc, #1832]	; 70fbcc <noMove_DA+0xc>
  70f4a0:	e5d11000 	ldrb	r1, [r1]
  70f4a4:	e5c01002 	strb	r1, [r0, #2]
  70f4a8:	e59f1720 	ldr	r1, [pc, #1824]	; 70fbd0 <noMove_DA+0x10>
  70f4ac:	e5d11000 	ldrb	r1, [r1]
  70f4b0:	e5c01003 	strb	r1, [r0, #3]
  70f4b4:	e59f3730 	ldr	r3, [pc, #1840]	; 70fbec <noMove_DA+0x2c>
  70f4b8:	e59f2730 	ldr	r2, [pc, #1840]	; 70fbf0 <noMove_DA+0x30>
  70f4bc:	e5823000 	str	r3, [r2]
  70f4c0:	e59f372c 	ldr	r3, [pc, #1836]	; 70fbf4 <noMove_DA+0x34>
  70f4c4:	e59f272c 	ldr	r2, [pc, #1836]	; 70fbf8 <noMove_DA+0x38>
  70f4c8:	e5823000 	str	r3, [r2]
  70f4cc:	e3a03040 	mov	r3, #64	; 0x40
  70f4d0:	e59f2724 	ldr	r2, [pc, #1828]	; 70fbfc <noMove_DA+0x3c>
  70f4d4:	e5c23000 	strb	r3, [r2]
  70f4d8:	e3a03060 	mov	r3, #96	; 0x60
  70f4dc:	e59f571c 	ldr	r5, [pc, #1820]	; 70fc00 <noMove_DA+0x40>
  70f4e0:	e5c53000 	strb	r3, [r5]
  70f4e4:	e59f0718 	ldr	r0, [pc, #1816]	; 70fc04 <noMove_DA+0x44>
  70f4e8:	e5d01000 	ldrb	r1, [r0]
  70f4ec:	e2811001 	add	r1, r1, #1
  70f4f0:	e5c01000 	strb	r1, [r0]
  70f4f4:	e59f070c 	ldr	r0, [pc, #1804]	; 70fc08 <noMove_DA+0x48>
  70f4f8:	e3a01002 	mov	r1, #2
  70f4fc:	e5c01000 	strb	r1, [r0]
  70f500:	e59f0704 	ldr	r0, [pc, #1796]	; 70fc0c <noMove_DA+0x4c>
  70f504:	e3a01001 	mov	r1, #1
  70f508:	e5c01000 	strb	r1, [r0]
  70f50c:	eb0001c1 	bl	70fc18 <drawSquareBlock>

0070f510 <noMove_AB>:
  70f510:	e49de004 	pop	{lr}		; (ldr lr, [sp], #4)
  70f514:	e1a0f00e 	mov	pc, lr

0070f518 <rotate1_BC>:
  70f518:	e52de004 	push	{lr}		; (str lr, [sp, #-4]!)
  70f51c:	e59f06a4 	ldr	r0, [pc, #1700]	; 70fbc8 <noMove_DA+0x8>
  70f520:	e59f26a4 	ldr	r2, [pc, #1700]	; 70fbcc <noMove_DA+0xc>
  70f524:	e5d22000 	ldrb	r2, [r2]
  70f528:	e1a01002 	mov	r1, r2
  70f52c:	e282200a 	add	r2, r2, #10
  70f530:	e2422002 	sub	r2, r2, #2
  70f534:	ebffee8c 	bl	70af6c <checkIfDifferentLine>
  70f538:	e3530000 	cmp	r3, #0
  70f53c:	0a000083 	beq	70f750 <noMove_BC>
  70f540:	e35200c7 	cmp	r2, #199	; 0xc7
  70f544:	ca000081 	bgt	70f750 <noMove_BC>
  70f548:	e3520000 	cmp	r2, #0
  70f54c:	ba00007f 	blt	70f750 <noMove_BC>
  70f550:	e7d01002 	ldrb	r1, [r0, r2]
  70f554:	e3510001 	cmp	r1, #1
  70f558:	aa00007c 	bge	70f750 <noMove_BC>
  70f55c:	e59f0664 	ldr	r0, [pc, #1636]	; 70fbc8 <noMove_DA+0x8>
  70f560:	e59f2668 	ldr	r2, [pc, #1640]	; 70fbd0 <noMove_DA+0x10>
  70f564:	e5d22000 	ldrb	r2, [r2]
  70f568:	e1a01002 	mov	r1, r2
  70f56c:	e2422001 	sub	r2, r2, #1
  70f570:	ebffee7d 	bl	70af6c <checkIfDifferentLine>
  70f574:	e3530000 	cmp	r3, #0
  70f578:	1a000074 	bne	70f750 <noMove_BC>
  70f57c:	e35200c7 	cmp	r2, #199	; 0xc7
  70f580:	ca000072 	bgt	70f750 <noMove_BC>
  70f584:	e3520000 	cmp	r2, #0
  70f588:	ba000070 	blt	70f750 <noMove_BC>
  70f58c:	e7d01002 	ldrb	r1, [r0, r2]
  70f590:	e3510001 	cmp	r1, #1
  70f594:	aa00006d 	bge	70f750 <noMove_BC>
  70f598:	e59f0628 	ldr	r0, [pc, #1576]	; 70fbc8 <noMove_DA+0x8>
  70f59c:	e59f2630 	ldr	r2, [pc, #1584]	; 70fbd4 <noMove_DA+0x14>
  70f5a0:	e5d22000 	ldrb	r2, [r2]
  70f5a4:	e3a01000 	mov	r1, #0
  70f5a8:	e7c01002 	strb	r1, [r0, r2]
  70f5ac:	e59f0614 	ldr	r0, [pc, #1556]	; 70fbc8 <noMove_DA+0x8>
  70f5b0:	e59f2620 	ldr	r2, [pc, #1568]	; 70fbd8 <noMove_DA+0x18>
  70f5b4:	e5d22000 	ldrb	r2, [r2]
  70f5b8:	e3a01000 	mov	r1, #0
  70f5bc:	e7c01002 	strb	r1, [r0, r2]
  70f5c0:	e59f0600 	ldr	r0, [pc, #1536]	; 70fbc8 <noMove_DA+0x8>
  70f5c4:	e59f2600 	ldr	r2, [pc, #1536]	; 70fbcc <noMove_DA+0xc>
  70f5c8:	e5d22000 	ldrb	r2, [r2]
  70f5cc:	e3a01000 	mov	r1, #0
  70f5d0:	e7c01002 	strb	r1, [r0, r2]
  70f5d4:	e59f05ec 	ldr	r0, [pc, #1516]	; 70fbc8 <noMove_DA+0x8>
  70f5d8:	e59f25f0 	ldr	r2, [pc, #1520]	; 70fbd0 <noMove_DA+0x10>
  70f5dc:	e5d22000 	ldrb	r2, [r2]
  70f5e0:	e3a01000 	mov	r1, #0
  70f5e4:	e7c01002 	strb	r1, [r0, r2]
  70f5e8:	eb00018a 	bl	70fc18 <drawSquareBlock>
  70f5ec:	e59f05e0 	ldr	r0, [pc, #1504]	; 70fbd4 <noMove_DA+0x14>
  70f5f0:	e5d02000 	ldrb	r2, [r0]
  70f5f4:	e282200a 	add	r2, r2, #10
  70f5f8:	e5c02000 	strb	r2, [r0]
  70f5fc:	e59f05d4 	ldr	r0, [pc, #1492]	; 70fbd8 <noMove_DA+0x18>
  70f600:	e5d02000 	ldrb	r2, [r0]
  70f604:	e2822001 	add	r2, r2, #1
  70f608:	e5c02000 	strb	r2, [r0]
  70f60c:	e59f05b8 	ldr	r0, [pc, #1464]	; 70fbcc <noMove_DA+0xc>
  70f610:	e5d02000 	ldrb	r2, [r0]
  70f614:	e282200a 	add	r2, r2, #10
  70f618:	e2422002 	sub	r2, r2, #2
  70f61c:	e5c02000 	strb	r2, [r0]
  70f620:	e59f05a8 	ldr	r0, [pc, #1448]	; 70fbd0 <noMove_DA+0x10>
  70f624:	e5d02000 	ldrb	r2, [r0]
  70f628:	e2422001 	sub	r2, r2, #1
  70f62c:	e5c02000 	strb	r2, [r0]
  70f630:	e59f35a4 	ldr	r3, [pc, #1444]	; 70fbdc <noMove_DA+0x1c>
  70f634:	e5d33000 	ldrb	r3, [r3]
  70f638:	e59f2588 	ldr	r2, [pc, #1416]	; 70fbc8 <noMove_DA+0x8>
  70f63c:	e59f0590 	ldr	r0, [pc, #1424]	; 70fbd4 <noMove_DA+0x14>
  70f640:	e5d01000 	ldrb	r1, [r0]
  70f644:	e7c23001 	strb	r3, [r2, r1]
  70f648:	e59f0588 	ldr	r0, [pc, #1416]	; 70fbd8 <noMove_DA+0x18>
  70f64c:	e5d01000 	ldrb	r1, [r0]
  70f650:	e7c23001 	strb	r3, [r2, r1]
  70f654:	e59f0570 	ldr	r0, [pc, #1392]	; 70fbcc <noMove_DA+0xc>
  70f658:	e5d01000 	ldrb	r1, [r0]
  70f65c:	e7c23001 	strb	r3, [r2, r1]
  70f660:	e59f0568 	ldr	r0, [pc, #1384]	; 70fbd0 <noMove_DA+0x10>
  70f664:	e5d01000 	ldrb	r1, [r0]
  70f668:	e7c23001 	strb	r3, [r2, r1]
  70f66c:	e59f056c 	ldr	r0, [pc, #1388]	; 70fbe0 <noMove_DA+0x20>
  70f670:	e3a010ff 	mov	r1, #255	; 0xff
  70f674:	e5c01000 	strb	r1, [r0]
  70f678:	e59f3558 	ldr	r3, [pc, #1368]	; 70fbd8 <noMove_DA+0x18>
  70f67c:	e5d31000 	ldrb	r1, [r3]
  70f680:	e5c01001 	strb	r1, [r0, #1]
  70f684:	e59f3540 	ldr	r3, [pc, #1344]	; 70fbcc <noMove_DA+0xc>
  70f688:	e5d31000 	ldrb	r1, [r3]
  70f68c:	e5c01002 	strb	r1, [r0, #2]
  70f690:	e59f3538 	ldr	r3, [pc, #1336]	; 70fbd0 <noMove_DA+0x10>
  70f694:	e5d31000 	ldrb	r1, [r3]
  70f698:	e5c01003 	strb	r1, [r0, #3]
  70f69c:	e59f0540 	ldr	r0, [pc, #1344]	; 70fbe4 <noMove_DA+0x24>
  70f6a0:	e59f152c 	ldr	r1, [pc, #1324]	; 70fbd4 <noMove_DA+0x14>
  70f6a4:	e5d11000 	ldrb	r1, [r1]
  70f6a8:	e5c01000 	strb	r1, [r0]
  70f6ac:	e3a010ff 	mov	r1, #255	; 0xff
  70f6b0:	e5c01001 	strb	r1, [r0, #1]
  70f6b4:	e59f1510 	ldr	r1, [pc, #1296]	; 70fbcc <noMove_DA+0xc>
  70f6b8:	e5d11000 	ldrb	r1, [r1]
  70f6bc:	e5c01002 	strb	r1, [r0, #2]
  70f6c0:	e3a010ff 	mov	r1, #255	; 0xff
  70f6c4:	e5c01003 	strb	r1, [r0, #3]
  70f6c8:	e59f0518 	ldr	r0, [pc, #1304]	; 70fbe8 <noMove_DA+0x28>
  70f6cc:	e59f1504 	ldr	r1, [pc, #1284]	; 70fbd8 <noMove_DA+0x18>
  70f6d0:	e5d11000 	ldrb	r1, [r1]
  70f6d4:	e5c01000 	strb	r1, [r0]
  70f6d8:	e3a010ff 	mov	r1, #255	; 0xff
  70f6dc:	e5c01001 	strb	r1, [r0, #1]
  70f6e0:	e59f14e8 	ldr	r1, [pc, #1256]	; 70fbd0 <noMove_DA+0x10>
  70f6e4:	e5d11000 	ldrb	r1, [r1]
  70f6e8:	e5c01002 	strb	r1, [r0, #2]
  70f6ec:	e3a010ff 	mov	r1, #255	; 0xff
  70f6f0:	e5c01003 	strb	r1, [r0, #3]
  70f6f4:	e59f3514 	ldr	r3, [pc, #1300]	; 70fc10 <noMove_DA+0x50>
  70f6f8:	e59f24f0 	ldr	r2, [pc, #1264]	; 70fbf0 <noMove_DA+0x30>
  70f6fc:	e5823000 	str	r3, [r2]
  70f700:	e59f350c 	ldr	r3, [pc, #1292]	; 70fc14 <noMove_DA+0x54>
  70f704:	e59f24ec 	ldr	r2, [pc, #1260]	; 70fbf8 <noMove_DA+0x38>
  70f708:	e5823000 	str	r3, [r2]
  70f70c:	e3a03060 	mov	r3, #96	; 0x60
  70f710:	e59f24e4 	ldr	r2, [pc, #1252]	; 70fbfc <noMove_DA+0x3c>
  70f714:	e5c23000 	strb	r3, [r2]
  70f718:	e3a03040 	mov	r3, #64	; 0x40
  70f71c:	e59f54dc 	ldr	r5, [pc, #1244]	; 70fc00 <noMove_DA+0x40>
  70f720:	e5c53000 	strb	r3, [r5]
  70f724:	e59f04d8 	ldr	r0, [pc, #1240]	; 70fc04 <noMove_DA+0x44>
  70f728:	e5d01000 	ldrb	r1, [r0]
  70f72c:	e2411001 	sub	r1, r1, #1
  70f730:	e5c01000 	strb	r1, [r0]
  70f734:	e59f04cc 	ldr	r0, [pc, #1228]	; 70fc08 <noMove_DA+0x48>
  70f738:	e3a01003 	mov	r1, #3
  70f73c:	e5c01000 	strb	r1, [r0]
  70f740:	e59f04c4 	ldr	r0, [pc, #1220]	; 70fc0c <noMove_DA+0x4c>
  70f744:	e3a01002 	mov	r1, #2
  70f748:	e5c01000 	strb	r1, [r0]
  70f74c:	eb000131 	bl	70fc18 <drawSquareBlock>

0070f750 <noMove_BC>:
  70f750:	e49de004 	pop	{lr}		; (ldr lr, [sp], #4)
  70f754:	e1a0f00e 	mov	pc, lr

0070f758 <rotate1_CD>:
  70f758:	e52de004 	push	{lr}		; (str lr, [sp, #-4]!)
  70f75c:	e59f0464 	ldr	r0, [pc, #1124]	; 70fbc8 <noMove_DA+0x8>
  70f760:	e59f246c 	ldr	r2, [pc, #1132]	; 70fbd4 <noMove_DA+0x14>
  70f764:	e5d22000 	ldrb	r2, [r2]
  70f768:	e1a01002 	mov	r1, r2
  70f76c:	e242200a 	sub	r2, r2, #10
  70f770:	e2422001 	sub	r2, r2, #1
  70f774:	ebffedfc 	bl	70af6c <checkIfDifferentLine>
  70f778:	e3530000 	cmp	r3, #0
  70f77c:	0a000081 	beq	70f988 <noMove_CD>
  70f780:	e35200c7 	cmp	r2, #199	; 0xc7
  70f784:	ca00007f 	bgt	70f988 <noMove_CD>
  70f788:	e3520000 	cmp	r2, #0
  70f78c:	ba00007d 	blt	70f988 <noMove_CD>
  70f790:	e7d01002 	ldrb	r1, [r0, r2]
  70f794:	e3510001 	cmp	r1, #1
  70f798:	aa00007a 	bge	70f988 <noMove_CD>
  70f79c:	e59f0424 	ldr	r0, [pc, #1060]	; 70fbc8 <noMove_DA+0x8>
  70f7a0:	e59f2430 	ldr	r2, [pc, #1072]	; 70fbd8 <noMove_DA+0x18>
  70f7a4:	e5d22000 	ldrb	r2, [r2]
  70f7a8:	e1a01002 	mov	r1, r2
  70f7ac:	e2422002 	sub	r2, r2, #2
  70f7b0:	ebffeded 	bl	70af6c <checkIfDifferentLine>
  70f7b4:	e3530000 	cmp	r3, #0
  70f7b8:	1a000072 	bne	70f988 <noMove_CD>
  70f7bc:	e35200c7 	cmp	r2, #199	; 0xc7
  70f7c0:	ca000070 	bgt	70f988 <noMove_CD>
  70f7c4:	e3520000 	cmp	r2, #0
  70f7c8:	ba00006e 	blt	70f988 <noMove_CD>
  70f7cc:	e7d01002 	ldrb	r1, [r0, r2]
  70f7d0:	e3510001 	cmp	r1, #1
  70f7d4:	aa00006b 	bge	70f988 <noMove_CD>
  70f7d8:	e59f03e8 	ldr	r0, [pc, #1000]	; 70fbc8 <noMove_DA+0x8>
  70f7dc:	e59f23f0 	ldr	r2, [pc, #1008]	; 70fbd4 <noMove_DA+0x14>
  70f7e0:	e5d22000 	ldrb	r2, [r2]
  70f7e4:	e3a01000 	mov	r1, #0
  70f7e8:	e7c01002 	strb	r1, [r0, r2]
  70f7ec:	e59f03d4 	ldr	r0, [pc, #980]	; 70fbc8 <noMove_DA+0x8>
  70f7f0:	e59f23e0 	ldr	r2, [pc, #992]	; 70fbd8 <noMove_DA+0x18>
  70f7f4:	e5d22000 	ldrb	r2, [r2]
  70f7f8:	e3a01000 	mov	r1, #0
  70f7fc:	e7c01002 	strb	r1, [r0, r2]
  70f800:	e59f03c0 	ldr	r0, [pc, #960]	; 70fbc8 <noMove_DA+0x8>
  70f804:	e59f23c0 	ldr	r2, [pc, #960]	; 70fbcc <noMove_DA+0xc>
  70f808:	e5d22000 	ldrb	r2, [r2]
  70f80c:	e3a01000 	mov	r1, #0
  70f810:	e7c01002 	strb	r1, [r0, r2]
  70f814:	e59f03ac 	ldr	r0, [pc, #940]	; 70fbc8 <noMove_DA+0x8>
  70f818:	e59f23b0 	ldr	r2, [pc, #944]	; 70fbd0 <noMove_DA+0x10>
  70f81c:	e5d22000 	ldrb	r2, [r2]
  70f820:	e3a01000 	mov	r1, #0
  70f824:	e7c01002 	strb	r1, [r0, r2]
  70f828:	eb0000fa 	bl	70fc18 <drawSquareBlock>
  70f82c:	e59f03a0 	ldr	r0, [pc, #928]	; 70fbd4 <noMove_DA+0x14>
  70f830:	e5d02000 	ldrb	r2, [r0]
  70f834:	e242200a 	sub	r2, r2, #10
  70f838:	e2422001 	sub	r2, r2, #1
  70f83c:	e5c02000 	strb	r2, [r0]
  70f840:	e59f0390 	ldr	r0, [pc, #912]	; 70fbd8 <noMove_DA+0x18>
  70f844:	e5d02000 	ldrb	r2, [r0]
  70f848:	e2422002 	sub	r2, r2, #2
  70f84c:	e5c02000 	strb	r2, [r0]
  70f850:	e59f0374 	ldr	r0, [pc, #884]	; 70fbcc <noMove_DA+0xc>
  70f854:	e5d02000 	ldrb	r2, [r0]
  70f858:	e242200a 	sub	r2, r2, #10
  70f85c:	e2822001 	add	r2, r2, #1
  70f860:	e5c02000 	strb	r2, [r0]
  70f864:	e59f0364 	ldr	r0, [pc, #868]	; 70fbd0 <noMove_DA+0x10>
  70f868:	e5d02000 	ldrb	r2, [r0]
  70f86c:	e59f3368 	ldr	r3, [pc, #872]	; 70fbdc <noMove_DA+0x1c>
  70f870:	e5d33000 	ldrb	r3, [r3]
  70f874:	e59f234c 	ldr	r2, [pc, #844]	; 70fbc8 <noMove_DA+0x8>
  70f878:	e59f0354 	ldr	r0, [pc, #852]	; 70fbd4 <noMove_DA+0x14>
  70f87c:	e5d01000 	ldrb	r1, [r0]
  70f880:	e7c23001 	strb	r3, [r2, r1]
  70f884:	e59f034c 	ldr	r0, [pc, #844]	; 70fbd8 <noMove_DA+0x18>
  70f888:	e5d01000 	ldrb	r1, [r0]
  70f88c:	e7c23001 	strb	r3, [r2, r1]
  70f890:	e59f0334 	ldr	r0, [pc, #820]	; 70fbcc <noMove_DA+0xc>
  70f894:	e5d01000 	ldrb	r1, [r0]
  70f898:	e7c23001 	strb	r3, [r2, r1]
  70f89c:	e59f032c 	ldr	r0, [pc, #812]	; 70fbd0 <noMove_DA+0x10>
  70f8a0:	e5d01000 	ldrb	r1, [r0]
  70f8a4:	e7c23001 	strb	r3, [r2, r1]
  70f8a8:	e59f0330 	ldr	r0, [pc, #816]	; 70fbe0 <noMove_DA+0x20>
  70f8ac:	e3a010ff 	mov	r1, #255	; 0xff
  70f8b0:	e5c01000 	strb	r1, [r0]
  70f8b4:	e59f331c 	ldr	r3, [pc, #796]	; 70fbd8 <noMove_DA+0x18>
  70f8b8:	e5d31000 	ldrb	r1, [r3]
  70f8bc:	e5c01001 	strb	r1, [r0, #1]
  70f8c0:	e3a010ff 	mov	r1, #255	; 0xff
  70f8c4:	e5c01002 	strb	r1, [r0, #2]
  70f8c8:	e59f3300 	ldr	r3, [pc, #768]	; 70fbd0 <noMove_DA+0x10>
  70f8cc:	e5d31000 	ldrb	r1, [r3]
  70f8d0:	e5c01003 	strb	r1, [r0, #3]
  70f8d4:	e59f0308 	ldr	r0, [pc, #776]	; 70fbe4 <noMove_DA+0x24>
  70f8d8:	e59f32f4 	ldr	r3, [pc, #756]	; 70fbd4 <noMove_DA+0x14>
  70f8dc:	e5931000 	ldr	r1, [r3]
  70f8e0:	e5c01000 	strb	r1, [r0]
  70f8e4:	e59f32ec 	ldr	r3, [pc, #748]	; 70fbd8 <noMove_DA+0x18>
  70f8e8:	e5d31000 	ldrb	r1, [r3]
  70f8ec:	e5c01001 	strb	r1, [r0, #1]
  70f8f0:	e3a010ff 	mov	r1, #255	; 0xff
  70f8f4:	e5c01002 	strb	r1, [r0, #2]
  70f8f8:	e59f32d0 	ldr	r3, [pc, #720]	; 70fbd0 <noMove_DA+0x10>
  70f8fc:	e5d31000 	ldrb	r1, [r3]
  70f900:	e5c01003 	strb	r1, [r0, #3]
  70f904:	e59f02dc 	ldr	r0, [pc, #732]	; 70fbe8 <noMove_DA+0x28>
  70f908:	e59f32c4 	ldr	r3, [pc, #708]	; 70fbd4 <noMove_DA+0x14>
  70f90c:	e5d31000 	ldrb	r1, [r3]
  70f910:	e5c01000 	strb	r1, [r0]
  70f914:	e3a010ff 	mov	r1, #255	; 0xff
  70f918:	e5c01001 	strb	r1, [r0, #1]
  70f91c:	e59f32a8 	ldr	r3, [pc, #680]	; 70fbcc <noMove_DA+0xc>
  70f920:	e5d31000 	ldrb	r1, [r3]
  70f924:	e5c01002 	strb	r1, [r0, #2]
  70f928:	e59f32a0 	ldr	r3, [pc, #672]	; 70fbd0 <noMove_DA+0x10>
  70f92c:	e5d31000 	ldrb	r1, [r3]
  70f930:	e5c01003 	strb	r1, [r0, #3]
  70f934:	e59f32b0 	ldr	r3, [pc, #688]	; 70fbec <noMove_DA+0x2c>
  70f938:	e59f22b0 	ldr	r2, [pc, #688]	; 70fbf0 <noMove_DA+0x30>
  70f93c:	e5823000 	str	r3, [r2]
  70f940:	e59f32ac 	ldr	r3, [pc, #684]	; 70fbf4 <noMove_DA+0x34>
  70f944:	e59f22ac 	ldr	r2, [pc, #684]	; 70fbf8 <noMove_DA+0x38>
  70f948:	e5823000 	str	r3, [r2]
  70f94c:	e3a03040 	mov	r3, #64	; 0x40
  70f950:	e59f22a4 	ldr	r2, [pc, #676]	; 70fbfc <noMove_DA+0x3c>
  70f954:	e5c23000 	strb	r3, [r2]
  70f958:	e3a03060 	mov	r3, #96	; 0x60
  70f95c:	e59f529c 	ldr	r5, [pc, #668]	; 70fc00 <noMove_DA+0x40>
  70f960:	e5c53000 	strb	r3, [r5]
  70f964:	e59f0298 	ldr	r0, [pc, #664]	; 70fc04 <noMove_DA+0x44>
  70f968:	e5d01000 	ldrb	r1, [r0]
  70f96c:	e59f0294 	ldr	r0, [pc, #660]	; 70fc08 <noMove_DA+0x48>
  70f970:	e3a01002 	mov	r1, #2
  70f974:	e5c01000 	strb	r1, [r0]
  70f978:	e59f028c 	ldr	r0, [pc, #652]	; 70fc0c <noMove_DA+0x4c>
  70f97c:	e3a01003 	mov	r1, #3
  70f980:	e5c01000 	strb	r1, [r0]
  70f984:	eb0000a3 	bl	70fc18 <drawSquareBlock>

0070f988 <noMove_CD>:
  70f988:	e49de004 	pop	{lr}		; (ldr lr, [sp], #4)
  70f98c:	e1a0f00e 	mov	pc, lr

0070f990 <rotate1_DA>:
  70f990:	e52de004 	push	{lr}		; (str lr, [sp, #-4]!)
  70f994:	e59f022c 	ldr	r0, [pc, #556]	; 70fbc8 <noMove_DA+0x8>
  70f998:	e59f2234 	ldr	r2, [pc, #564]	; 70fbd4 <noMove_DA+0x14>
  70f99c:	e5d22000 	ldrb	r2, [r2]
  70f9a0:	e1a01002 	mov	r1, r2
  70f9a4:	e2822001 	add	r2, r2, #1
  70f9a8:	ebffed6f 	bl	70af6c <checkIfDifferentLine>
  70f9ac:	e3530000 	cmp	r3, #0
  70f9b0:	1a000082 	bne	70fbc0 <noMove_DA>
  70f9b4:	e35200c7 	cmp	r2, #199	; 0xc7
  70f9b8:	ca000080 	bgt	70fbc0 <noMove_DA>
  70f9bc:	e3520000 	cmp	r2, #0
  70f9c0:	ba00007e 	blt	70fbc0 <noMove_DA>
  70f9c4:	e7d01002 	ldrb	r1, [r0, r2]
  70f9c8:	e3510001 	cmp	r1, #1
  70f9cc:	aa00007b 	bge	70fbc0 <noMove_DA>
  70f9d0:	e59f01f0 	ldr	r0, [pc, #496]	; 70fbc8 <noMove_DA+0x8>
  70f9d4:	e59f21fc 	ldr	r2, [pc, #508]	; 70fbd8 <noMove_DA+0x18>
  70f9d8:	e5d22000 	ldrb	r2, [r2]
  70f9dc:	e1a01002 	mov	r1, r2
  70f9e0:	e242200a 	sub	r2, r2, #10
  70f9e4:	e2822002 	add	r2, r2, #2
  70f9e8:	ebffed5f 	bl	70af6c <checkIfDifferentLine>
  70f9ec:	e3530000 	cmp	r3, #0
  70f9f0:	0a000072 	beq	70fbc0 <noMove_DA>
  70f9f4:	e35200c7 	cmp	r2, #199	; 0xc7
  70f9f8:	ca000070 	bgt	70fbc0 <noMove_DA>
  70f9fc:	e3520000 	cmp	r2, #0
  70fa00:	ba00006e 	blt	70fbc0 <noMove_DA>
  70fa04:	e7d01002 	ldrb	r1, [r0, r2]
  70fa08:	e3510001 	cmp	r1, #1
  70fa0c:	aa00006b 	bge	70fbc0 <noMove_DA>
  70fa10:	e59f01b0 	ldr	r0, [pc, #432]	; 70fbc8 <noMove_DA+0x8>
  70fa14:	e59f21b8 	ldr	r2, [pc, #440]	; 70fbd4 <noMove_DA+0x14>
  70fa18:	e5d22000 	ldrb	r2, [r2]
  70fa1c:	e3a01000 	mov	r1, #0
  70fa20:	e7c01002 	strb	r1, [r0, r2]
  70fa24:	e59f019c 	ldr	r0, [pc, #412]	; 70fbc8 <noMove_DA+0x8>
  70fa28:	e59f21a8 	ldr	r2, [pc, #424]	; 70fbd8 <noMove_DA+0x18>
  70fa2c:	e5d22000 	ldrb	r2, [r2]
  70fa30:	e3a01000 	mov	r1, #0
  70fa34:	e7c01002 	strb	r1, [r0, r2]
  70fa38:	e59f0188 	ldr	r0, [pc, #392]	; 70fbc8 <noMove_DA+0x8>
  70fa3c:	e59f2188 	ldr	r2, [pc, #392]	; 70fbcc <noMove_DA+0xc>
  70fa40:	e5d22000 	ldrb	r2, [r2]
  70fa44:	e3a01000 	mov	r1, #0
  70fa48:	e7c01002 	strb	r1, [r0, r2]
  70fa4c:	e59f0174 	ldr	r0, [pc, #372]	; 70fbc8 <noMove_DA+0x8>
  70fa50:	e59f2178 	ldr	r2, [pc, #376]	; 70fbd0 <noMove_DA+0x10>
  70fa54:	e5d22000 	ldrb	r2, [r2]
  70fa58:	e3a01000 	mov	r1, #0
  70fa5c:	e7c01002 	strb	r1, [r0, r2]
  70fa60:	eb00006c 	bl	70fc18 <drawSquareBlock>
  70fa64:	e59f0168 	ldr	r0, [pc, #360]	; 70fbd4 <noMove_DA+0x14>
  70fa68:	e5d02000 	ldrb	r2, [r0]
  70fa6c:	e2822001 	add	r2, r2, #1
  70fa70:	e5c02000 	strb	r2, [r0]
  70fa74:	e59f015c 	ldr	r0, [pc, #348]	; 70fbd8 <noMove_DA+0x18>
  70fa78:	e5d02000 	ldrb	r2, [r0]
  70fa7c:	e242200a 	sub	r2, r2, #10
  70fa80:	e2822002 	add	r2, r2, #2
  70fa84:	e5c02000 	strb	r2, [r0]
  70fa88:	e59f013c 	ldr	r0, [pc, #316]	; 70fbcc <noMove_DA+0xc>
  70fa8c:	e5d02000 	ldrb	r2, [r0]
  70fa90:	e2422001 	sub	r2, r2, #1
  70fa94:	e5c02000 	strb	r2, [r0]
  70fa98:	e59f0130 	ldr	r0, [pc, #304]	; 70fbd0 <noMove_DA+0x10>
  70fa9c:	e5d02000 	ldrb	r2, [r0]
  70faa0:	e242200a 	sub	r2, r2, #10
  70faa4:	e5c02000 	strb	r2, [r0]
  70faa8:	e59f312c 	ldr	r3, [pc, #300]	; 70fbdc <noMove_DA+0x1c>
  70faac:	e5d33000 	ldrb	r3, [r3]
  70fab0:	e59f2110 	ldr	r2, [pc, #272]	; 70fbc8 <noMove_DA+0x8>
  70fab4:	e59f0118 	ldr	r0, [pc, #280]	; 70fbd4 <noMove_DA+0x14>
  70fab8:	e5d01000 	ldrb	r1, [r0]
  70fabc:	e7c23001 	strb	r3, [r2, r1]
  70fac0:	e59f0110 	ldr	r0, [pc, #272]	; 70fbd8 <noMove_DA+0x18>
  70fac4:	e5d01000 	ldrb	r1, [r0]
  70fac8:	e7c23001 	strb	r3, [r2, r1]
  70facc:	e59f00f8 	ldr	r0, [pc, #248]	; 70fbcc <noMove_DA+0xc>
  70fad0:	e5d01000 	ldrb	r1, [r0]
  70fad4:	e7c23001 	strb	r3, [r2, r1]
  70fad8:	e59f00f0 	ldr	r0, [pc, #240]	; 70fbd0 <noMove_DA+0x10>
  70fadc:	e5d01000 	ldrb	r1, [r0]
  70fae0:	e7c23001 	strb	r3, [r2, r1]
  70fae4:	e59f00f4 	ldr	r0, [pc, #244]	; 70fbe0 <noMove_DA+0x20>
  70fae8:	e3a010ff 	mov	r1, #255	; 0xff
  70faec:	e5c01000 	strb	r1, [r0]
  70faf0:	e59f30e0 	ldr	r3, [pc, #224]	; 70fbd8 <noMove_DA+0x18>
  70faf4:	e5d31000 	ldrb	r1, [r3]
  70faf8:	e5c01001 	strb	r1, [r0, #1]
  70fafc:	e59f30c8 	ldr	r3, [pc, #200]	; 70fbcc <noMove_DA+0xc>
  70fb00:	e5d31000 	ldrb	r1, [r3]
  70fb04:	e5c01002 	strb	r1, [r0, #2]
  70fb08:	e59f30c0 	ldr	r3, [pc, #192]	; 70fbd0 <noMove_DA+0x10>
  70fb0c:	e5d31000 	ldrb	r1, [r3]
  70fb10:	e5c01003 	strb	r1, [r0, #3]
  70fb14:	e59f00c8 	ldr	r0, [pc, #200]	; 70fbe4 <noMove_DA+0x24>
  70fb18:	e59f30b4 	ldr	r3, [pc, #180]	; 70fbd4 <noMove_DA+0x14>
  70fb1c:	e5d31000 	ldrb	r1, [r3]
  70fb20:	e5c01000 	strb	r1, [r0]
  70fb24:	e3a010ff 	mov	r1, #255	; 0xff
  70fb28:	e5c01001 	strb	r1, [r0, #1]
  70fb2c:	e59f3098 	ldr	r3, [pc, #152]	; 70fbcc <noMove_DA+0xc>
  70fb30:	e5d31000 	ldrb	r1, [r3]
  70fb34:	e5c01002 	strb	r1, [r0, #2]
  70fb38:	e3a010ff 	mov	r1, #255	; 0xff
  70fb3c:	e5c01003 	strb	r1, [r0, #3]
  70fb40:	e59f00a0 	ldr	r0, [pc, #160]	; 70fbe8 <noMove_DA+0x28>
  70fb44:	e59f308c 	ldr	r3, [pc, #140]	; 70fbd8 <noMove_DA+0x18>
  70fb48:	e5d31000 	ldrb	r1, [r3]
  70fb4c:	e5c01000 	strb	r1, [r0]
  70fb50:	e3a010ff 	mov	r1, #255	; 0xff
  70fb54:	e5c01001 	strb	r1, [r0, #1]
  70fb58:	e59f3070 	ldr	r3, [pc, #112]	; 70fbd0 <noMove_DA+0x10>
  70fb5c:	e5d31000 	ldrb	r1, [r3]
  70fb60:	e5c01002 	strb	r1, [r0, #2]
  70fb64:	e3a010ff 	mov	r1, #255	; 0xff
  70fb68:	e5c01003 	strb	r1, [r0, #3]
  70fb6c:	e59f309c 	ldr	r3, [pc, #156]	; 70fc10 <noMove_DA+0x50>
  70fb70:	e59f2078 	ldr	r2, [pc, #120]	; 70fbf0 <noMove_DA+0x30>
  70fb74:	e5823000 	str	r3, [r2]
  70fb78:	e59f3094 	ldr	r3, [pc, #148]	; 70fc14 <noMove_DA+0x54>
  70fb7c:	e59f2074 	ldr	r2, [pc, #116]	; 70fbf8 <noMove_DA+0x38>
  70fb80:	e5823000 	str	r3, [r2]
  70fb84:	e3a03060 	mov	r3, #96	; 0x60
  70fb88:	e59f206c 	ldr	r2, [pc, #108]	; 70fbfc <noMove_DA+0x3c>
  70fb8c:	e5c23000 	strb	r3, [r2]
  70fb90:	e3a03040 	mov	r3, #64	; 0x40
  70fb94:	e59f5064 	ldr	r5, [pc, #100]	; 70fc00 <noMove_DA+0x40>
  70fb98:	e5c53000 	strb	r3, [r5]
  70fb9c:	e59f0060 	ldr	r0, [pc, #96]	; 70fc04 <noMove_DA+0x44>
  70fba0:	e5d01000 	ldrb	r1, [r0]
  70fba4:	e59f005c 	ldr	r0, [pc, #92]	; 70fc08 <noMove_DA+0x48>
  70fba8:	e3a01003 	mov	r1, #3
  70fbac:	e5c01000 	strb	r1, [r0]
  70fbb0:	e59f0054 	ldr	r0, [pc, #84]	; 70fc0c <noMove_DA+0x4c>
  70fbb4:	e3a01000 	mov	r1, #0
  70fbb8:	e5c01000 	strb	r1, [r0]
  70fbbc:	eb000015 	bl	70fc18 <drawSquareBlock>

0070fbc0 <noMove_DA>:
  70fbc0:	e49de004 	pop	{lr}		; (ldr lr, [sp], #4)
  70fbc4:	e1a0f00e 	mov	pc, lr
  70fbc8:	006c4e98 	.word	0x006c4e98
  70fbcc:	006c4f62 	.word	0x006c4f62
  70fbd0:	006c4f63 	.word	0x006c4f63
  70fbd4:	006c4f60 	.word	0x006c4f60
  70fbd8:	006c4f61 	.word	0x006c4f61
  70fbdc:	006c4f7c 	.word	0x006c4f7c
  70fbe0:	006c4f64 	.word	0x006c4f64
  70fbe4:	006c4f68 	.word	0x006c4f68
  70fbe8:	006c4f6c 	.word	0x006c4f6c
  70fbec:	00666e98 	.word	0x00666e98
  70fbf0:	006c4f70 	.word	0x006c4f70
  70fbf4:	00669e98 	.word	0x00669e98
  70fbf8:	006c4f74 	.word	0x006c4f74
  70fbfc:	006c4f78 	.word	0x006c4f78
  70fc00:	006c4f79 	.word	0x006c4f79
  70fc04:	006c4f7a 	.word	0x006c4f7a
  70fc08:	006c4f7b 	.word	0x006c4f7b
  70fc0c:	006c4f7d 	.word	0x006c4f7d
  70fc10:	00660e98 	.word	0x00660e98
  70fc14:	00663e98 	.word	0x00663e98

0070fc18 <drawSquareBlock>:
  70fc18:	e52de004 	push	{lr}		; (str lr, [sp, #-4]!)
  70fc1c:	e52d6004 	push	{r6}		; (str r6, [sp, #-4]!)
  70fc20:	e59f10dc 	ldr	r1, [pc, #220]	; 70fd04 <finishRestore+0xc>
  70fc24:	e59f00dc 	ldr	r0, [pc, #220]	; 70fd08 <finishRestore+0x10>
  70fc28:	e3a06000 	mov	r6, #0

0070fc2c <restoreLoop>:
  70fc2c:	e3560004 	cmp	r6, #4
  70fc30:	0a000030 	beq	70fcf8 <finishRestore>
  70fc34:	e59f10c8 	ldr	r1, [pc, #200]	; 70fd04 <finishRestore+0xc>
  70fc38:	e0811006 	add	r1, r1, r6
  70fc3c:	e5d13000 	ldrb	r3, [r1]
  70fc40:	e3a0ce19 	mov	ip, #400	; 0x190
  70fc44:	e7d02003 	ldrb	r2, [r0, r3]
  70fc48:	e1a01003 	mov	r1, r3
  70fc4c:	e3520000 	cmp	r2, #0
  70fc50:	0a00000e 	beq	70fc90 <drawBlack>
  70fc54:	e3520001 	cmp	r2, #1
  70fc58:	0a00000f 	beq	70fc9c <drawLightBlue>
  70fc5c:	e3520002 	cmp	r2, #2
  70fc60:	0a000010 	beq	70fca8 <drawGreen>
  70fc64:	e3520003 	cmp	r2, #3
  70fc68:	0a000011 	beq	70fcb4 <drawRed>
  70fc6c:	e3520004 	cmp	r2, #4
  70fc70:	0a000012 	beq	70fcc0 <drawYellow>
  70fc74:	e3520005 	cmp	r2, #5
  70fc78:	0a000013 	beq	70fccc <drawPurple>
  70fc7c:	e3520006 	cmp	r2, #6
  70fc80:	0a000014 	beq	70fcd8 <drawBlue>
  70fc84:	e3520007 	cmp	r2, #7
  70fc88:	0a000015 	beq	70fce4 <drawOrange>
  70fc8c:	ea000019 	b	70fcf8 <finishRestore>

0070fc90 <drawBlack>:
  70fc90:	e59f3074 	ldr	r3, [pc, #116]	; 70fd0c <finishRestore+0x14>
  70fc94:	eb0000a1 	bl	70ff20 <drawSquare>
  70fc98:	ea000014 	b	70fcf0 <continueRestore>

0070fc9c <drawLightBlue>:
  70fc9c:	e59f306c 	ldr	r3, [pc, #108]	; 70fd10 <finishRestore+0x18>
  70fca0:	eb00009e 	bl	70ff20 <drawSquare>
  70fca4:	ea000011 	b	70fcf0 <continueRestore>

0070fca8 <drawGreen>:
  70fca8:	e59f3064 	ldr	r3, [pc, #100]	; 70fd14 <finishRestore+0x1c>
  70fcac:	eb00009b 	bl	70ff20 <drawSquare>
  70fcb0:	ea00000e 	b	70fcf0 <continueRestore>

0070fcb4 <drawRed>:
  70fcb4:	e59f305c 	ldr	r3, [pc, #92]	; 70fd18 <finishRestore+0x20>
  70fcb8:	eb000098 	bl	70ff20 <drawSquare>
  70fcbc:	ea00000b 	b	70fcf0 <continueRestore>

0070fcc0 <drawYellow>:
  70fcc0:	e59f3054 	ldr	r3, [pc, #84]	; 70fd1c <finishRestore+0x24>
  70fcc4:	eb000095 	bl	70ff20 <drawSquare>
  70fcc8:	ea000008 	b	70fcf0 <continueRestore>

0070fccc <drawPurple>:
  70fccc:	e59f304c 	ldr	r3, [pc, #76]	; 70fd20 <finishRestore+0x28>
  70fcd0:	eb000092 	bl	70ff20 <drawSquare>
  70fcd4:	ea000005 	b	70fcf0 <continueRestore>

0070fcd8 <drawBlue>:
  70fcd8:	e59f3044 	ldr	r3, [pc, #68]	; 70fd24 <finishRestore+0x2c>
  70fcdc:	eb00008f 	bl	70ff20 <drawSquare>
  70fce0:	ea000002 	b	70fcf0 <continueRestore>

0070fce4 <drawOrange>:
  70fce4:	e59f303c 	ldr	r3, [pc, #60]	; 70fd28 <finishRestore+0x30>
  70fce8:	eb00008c 	bl	70ff20 <drawSquare>
  70fcec:	eaffffff 	b	70fcf0 <continueRestore>

0070fcf0 <continueRestore>:
  70fcf0:	e2866001 	add	r6, r6, #1
  70fcf4:	eaffffcc 	b	70fc2c <restoreLoop>

0070fcf8 <finishRestore>:
  70fcf8:	e49d6004 	pop	{r6}		; (ldr r6, [sp], #4)
  70fcfc:	e49de004 	pop	{lr}		; (ldr lr, [sp], #4)
  70fd00:	e1a0f00e 	mov	pc, lr
  70fd04:	006c4f60 	.word	0x006c4f60
  70fd08:	006c4e98 	.word	0x006c4e98
  70fd0c:	006dc940 	.word	0x006dc940
  70fd10:	006dd140 	.word	0x006dd140
  70fd14:	006dd940 	.word	0x006dd940
  70fd18:	006de140 	.word	0x006de140
  70fd1c:	006de940 	.word	0x006de940
  70fd20:	006df140 	.word	0x006df140
  70fd24:	006df940 	.word	0x006df940
  70fd28:	006e0140 	.word	0x006e0140

0070fd2c <runMainMenu>:
  70fd2c:	e52de004 	push	{lr}		; (str lr, [sp, #-4]!)
  70fd30:	e92d0300 	push	{r8, r9}
  70fd34:	eb00001e 	bl	70fdb4 <menuState1>
  70fd38:	e3a08ffa 	mov	r8, #1000	; 0x3e8
  70fd3c:	e1a08408 	lsl	r8, r8, #8
  70fd40:	e1a01008 	mov	r1, r8
  70fd44:	ebfff72b 	bl	70d9f8 <Wait>

0070fd48 <startUserInputLoop>:
  70fd48:	ebfff6e3 	bl	70d8dc <Read_Data>
  70fd4c:	e1a09000 	mov	r9, r0
  70fd50:	e3a01001 	mov	r1, #1
  70fd54:	e1a01401 	lsl	r1, r1, #8
  70fd58:	e1100001 	tst	r0, r1
  70fd5c:	1a000031 	bne	70fe28 <executeChosenOption>
  70fd60:	e3a01001 	mov	r1, #1

0070fd64 <checkUp>:
  70fd64:	e1a01201 	lsl	r1, r1, #4
  70fd68:	e1100001 	tst	r0, r1
  70fd6c:	0a000001 	beq	70fd78 <checkDown>
  70fd70:	eb00000f 	bl	70fdb4 <menuState1>
  70fd74:	ea00000d 	b	70fdb0 <getNextInput>

0070fd78 <checkDown>:
  70fd78:	e1a01081 	lsl	r1, r1, #1
  70fd7c:	e1100001 	tst	r0, r1
  70fd80:	0a000001 	beq	70fd8c <checkStart>
  70fd84:	eb000014 	bl	70fddc <menuState2>
  70fd88:	ea000008 	b	70fdb0 <getNextInput>

0070fd8c <checkStart>:
  70fd8c:	e3a01001 	mov	r1, #1
  70fd90:	e1a01181 	lsl	r1, r1, #3
  70fd94:	e1190001 	tst	r9, r1
  70fd98:	1a000000 	bne	70fda0 <restoreState>
  70fd9c:	ea000003 	b	70fdb0 <getNextInput>

0070fda0 <restoreState>:
  70fda0:	eb00002a 	bl	70fe50 <restoreCurrentGame>
  70fda4:	e8bd0300 	pop	{r8, r9}
  70fda8:	e49de004 	pop	{lr}		; (ldr lr, [sp], #4)
  70fdac:	e1a0f00e 	mov	pc, lr

0070fdb0 <getNextInput>:
  70fdb0:	eaffffe4 	b	70fd48 <startUserInputLoop>

0070fdb4 <menuState1>:
  70fdb4:	e52de004 	push	{lr}		; (str lr, [sp, #-4]!)
  70fdb8:	e52d4004 	push	{r4}		; (str r4, [sp, #-4]!)
  70fdbc:	e59f11c8 	ldr	r1, [pc, #456]	; 70ff8c <finishMod+0x3c>
  70fdc0:	eb00000d 	bl	70fdfc <drawState>
  70fdc4:	e59f01c4 	ldr	r0, [pc, #452]	; 70ff90 <finishMod+0x40>
  70fdc8:	e3a01000 	mov	r1, #0
  70fdcc:	e5c01000 	strb	r1, [r0]
  70fdd0:	e49d4004 	pop	{r4}		; (ldr r4, [sp], #4)
  70fdd4:	e49de004 	pop	{lr}		; (ldr lr, [sp], #4)
  70fdd8:	e1a0f00e 	mov	pc, lr

0070fddc <menuState2>:
  70fddc:	e52de004 	push	{lr}		; (str lr, [sp, #-4]!)
  70fde0:	e59f11ac 	ldr	r1, [pc, #428]	; 70ff94 <finishMod+0x44>
  70fde4:	eb000004 	bl	70fdfc <drawState>
  70fde8:	e59f01a0 	ldr	r0, [pc, #416]	; 70ff90 <finishMod+0x40>
  70fdec:	e3a01001 	mov	r1, #1
  70fdf0:	e5c01000 	strb	r1, [r0]
  70fdf4:	e49de004 	pop	{lr}		; (ldr lr, [sp], #4)
  70fdf8:	e1a0f00e 	mov	pc, lr

0070fdfc <drawState>:
  70fdfc:	e52de004 	push	{lr}		; (str lr, [sp, #-4]!)
  70fe00:	e52d4004 	push	{r4}		; (str r4, [sp, #-4]!)
  70fe04:	e1a04001 	mov	r4, r1
  70fe08:	e59f0188 	ldr	r0, [pc, #392]	; 70ff98 <finishMod+0x48>
  70fe0c:	e3a01e16 	mov	r1, #352	; 0x160
  70fe10:	e59f2184 	ldr	r2, [pc, #388]	; 70ff9c <finishMod+0x4c>
  70fe14:	e3a03096 	mov	r3, #150	; 0x96
  70fe18:	ebfff5c0 	bl	70d520 <drawImage>
  70fe1c:	e49d4004 	pop	{r4}		; (ldr r4, [sp], #4)
  70fe20:	e49de004 	pop	{lr}		; (ldr lr, [sp], #4)
  70fe24:	e1a0f00e 	mov	pc, lr

0070fe28 <executeChosenOption>:
  70fe28:	e59f0160 	ldr	r0, [pc, #352]	; 70ff90 <finishMod+0x40>
  70fe2c:	e5d00000 	ldrb	r0, [r0]
  70fe30:	e3500000 	cmp	r0, #0
  70fe34:	0a000001 	beq	70fe40 <startGame>
  70fe38:	eaffffff 	b	70fe3c <quitGame>

0070fe3c <quitGame>:
  70fe3c:	eafffab4 	b	70e914 <quitProgram>

0070fe40 <startGame>:
  70fe40:	ebfffa5e 	bl	70e7c0 <resetGameState>
  70fe44:	eb000001 	bl	70fe50 <restoreCurrentGame>
  70fe48:	ebfff5ea 	bl	70d5f8 <drawCurrentScore>
  70fe4c:	ebfff90b 	bl	70e280 <InsertNewBlock>

0070fe50 <restoreCurrentGame>:
  70fe50:	e52de004 	push	{lr}		; (str lr, [sp, #-4]!)
  70fe54:	e3a0ce19 	mov	ip, #400	; 0x190
  70fe58:	e59f0140 	ldr	r0, [pc, #320]	; 70ffa0 <finishMod+0x50>
  70fe5c:	e3a01000 	mov	r1, #0

0070fe60 <restoreLoop>:
  70fe60:	e35100c8 	cmp	r1, #200	; 0xc8
  70fe64:	0a00002b 	beq	70ff18 <finishRestore>
  70fe68:	e7d02001 	ldrb	r2, [r0, r1]
  70fe6c:	e3520000 	cmp	r2, #0
  70fe70:	0a00000e 	beq	70feb0 <drawBlack>
  70fe74:	e3520001 	cmp	r2, #1
  70fe78:	0a00000f 	beq	70febc <drawLightBlue>
  70fe7c:	e3520002 	cmp	r2, #2
  70fe80:	0a000010 	beq	70fec8 <drawGreen>
  70fe84:	e3520003 	cmp	r2, #3
  70fe88:	0a000011 	beq	70fed4 <drawRed>
  70fe8c:	e3520004 	cmp	r2, #4
  70fe90:	0a000012 	beq	70fee0 <drawYellow>
  70fe94:	e3520005 	cmp	r2, #5
  70fe98:	0a000013 	beq	70feec <drawPurple>
  70fe9c:	e3520006 	cmp	r2, #6
  70fea0:	0a000014 	beq	70fef8 <drawBlue>
  70fea4:	e3520007 	cmp	r2, #7
  70fea8:	0a000015 	beq	70ff04 <drawOrange>
  70feac:	ea000019 	b	70ff18 <finishRestore>

0070feb0 <drawBlack>:
  70feb0:	e59f30ec 	ldr	r3, [pc, #236]	; 70ffa4 <finishMod+0x54>
  70feb4:	eb000019 	bl	70ff20 <drawSquare>
  70feb8:	ea000014 	b	70ff10 <continueRestore>

0070febc <drawLightBlue>:
  70febc:	e59f30e4 	ldr	r3, [pc, #228]	; 70ffa8 <finishMod+0x58>
  70fec0:	eb000016 	bl	70ff20 <drawSquare>
  70fec4:	ea000011 	b	70ff10 <continueRestore>

0070fec8 <drawGreen>:
  70fec8:	e59f30dc 	ldr	r3, [pc, #220]	; 70ffac <finishMod+0x5c>
  70fecc:	eb000013 	bl	70ff20 <drawSquare>
  70fed0:	ea00000e 	b	70ff10 <continueRestore>

0070fed4 <drawRed>:
  70fed4:	e59f30d4 	ldr	r3, [pc, #212]	; 70ffb0 <finishMod+0x60>
  70fed8:	eb000010 	bl	70ff20 <drawSquare>
  70fedc:	ea00000b 	b	70ff10 <continueRestore>

0070fee0 <drawYellow>:
  70fee0:	e59f30cc 	ldr	r3, [pc, #204]	; 70ffb4 <finishMod+0x64>
  70fee4:	eb00000d 	bl	70ff20 <drawSquare>
  70fee8:	ea000008 	b	70ff10 <continueRestore>

0070feec <drawPurple>:
  70feec:	e59f30c4 	ldr	r3, [pc, #196]	; 70ffb8 <finishMod+0x68>
  70fef0:	eb00000a 	bl	70ff20 <drawSquare>
  70fef4:	ea000005 	b	70ff10 <continueRestore>

0070fef8 <drawBlue>:
  70fef8:	e59f30bc 	ldr	r3, [pc, #188]	; 70ffbc <finishMod+0x6c>
  70fefc:	eb000007 	bl	70ff20 <drawSquare>
  70ff00:	ea000002 	b	70ff10 <continueRestore>

0070ff04 <drawOrange>:
  70ff04:	e59f30b4 	ldr	r3, [pc, #180]	; 70ffc0 <finishMod+0x70>
  70ff08:	eb000004 	bl	70ff20 <drawSquare>
  70ff0c:	eaffffff 	b	70ff10 <continueRestore>

0070ff10 <continueRestore>:
  70ff10:	e2811001 	add	r1, r1, #1
  70ff14:	eaffffd1 	b	70fe60 <restoreLoop>

0070ff18 <finishRestore>:
  70ff18:	e49de004 	pop	{lr}		; (ldr lr, [sp], #4)
  70ff1c:	e1a0f00e 	mov	pc, lr

0070ff20 <drawSquare>:
  70ff20:	e52de004 	push	{lr}		; (str lr, [sp, #-4]!)
  70ff24:	e3a0c090 	mov	ip, #144	; 0x90
  70ff28:	e92d03f0 	push	{r4, r5, r6, r7, r8, r9}
  70ff2c:	e1a09000 	mov	r9, r0
  70ff30:	e1a08001 	mov	r8, r1
  70ff34:	e1a05001 	mov	r5, r1
  70ff38:	e3a06000 	mov	r6, #0

0070ff3c <modLoop>:
  70ff3c:	e355000a 	cmp	r5, #10
  70ff40:	ba000002 	blt	70ff50 <finishMod>
  70ff44:	e245500a 	sub	r5, r5, #10
  70ff48:	e2866001 	add	r6, r6, #1
  70ff4c:	eafffffa 	b	70ff3c <modLoop>

0070ff50 <finishMod>:
  70ff50:	e1a05285 	lsl	r5, r5, #5
  70ff54:	e1a06286 	lsl	r6, r6, #5
  70ff58:	e2855d06 	add	r5, r5, #384	; 0x180
  70ff5c:	e2866064 	add	r6, r6, #100	; 0x64
  70ff60:	e1a04003 	mov	r4, r3
  70ff64:	e3a03020 	mov	r3, #32
  70ff68:	e3a02020 	mov	r2, #32
  70ff6c:	e1a01006 	mov	r1, r6
  70ff70:	e1a00005 	mov	r0, r5
  70ff74:	ebfff569 	bl	70d520 <drawImage>
  70ff78:	e1a00009 	mov	r0, r9
  70ff7c:	e1a01008 	mov	r1, r8
  70ff80:	e8bd03f0 	pop	{r4, r5, r6, r7, r8, r9}
  70ff84:	e49de004 	pop	{lr}		; (ldr lr, [sp], #4)
  70ff88:	e1a0f00e 	mov	pc, lr
  70ff8c:	006e0940 	.word	0x006e0940
  70ff90:	0070a398 	.word	0x0070a398
  70ff94:	006f366c 	.word	0x006f366c
  70ff98:	0000019f 	.word	0x0000019f
  70ff9c:	00000101 	.word	0x00000101
  70ffa0:	006c4e98 	.word	0x006c4e98
  70ffa4:	00706398 	.word	0x00706398
  70ffa8:	00706b98 	.word	0x00706b98
  70ffac:	00707398 	.word	0x00707398
  70ffb0:	00707b98 	.word	0x00707b98
  70ffb4:	00708398 	.word	0x00708398
  70ffb8:	00708b98 	.word	0x00708b98
  70ffbc:	00709398 	.word	0x00709398
  70ffc0:	00709b98 	.word	0x00709b98

0070ffc4 <moveCurrentBlock>:
  70ffc4:	e52de004 	push	{lr}		; (str lr, [sp, #-4]!)
  70ffc8:	e92d0240 	push	{r6, r9}
  70ffcc:	e1a09001 	mov	r9, r1
  70ffd0:	e3590000 	cmp	r9, #0
  70ffd4:	0a000018 	beq	71003c <noButtonsPressed>
  70ffd8:	e3a01001 	mov	r1, #1
  70ffdc:	e1a01201 	lsl	r1, r1, #4
  70ffe0:	e1190001 	tst	r9, r1
  70ffe4:	1a000009 	bne	710010 <blockRotate>
  70ffe8:	e1a01081 	lsl	r1, r1, #1
  70ffec:	e1190001 	tst	r9, r1
  70fff0:	1a00000f 	bne	710034 <moveBlockDown>
  70fff4:	e1a01081 	lsl	r1, r1, #1
  70fff8:	e1190001 	tst	r9, r1
  70fffc:	1a000006 	bne	71001c <moveBlockLeft>
  710000:	e1a01081 	lsl	r1, r1, #1
  710004:	e1190001 	tst	r9, r1
  710008:	1a000006 	bne	710028 <moveBlockRight>
  71000c:	ea00000a 	b	71003c <noButtonsPressed>

00710010 <blockRotate>:
  710010:	ebffebb4 	bl	70aee8 <rotateBlock>
  710014:	e3a00001 	mov	r0, #1
  710018:	ea000007 	b	71003c <noButtonsPressed>

0071001c <moveBlockLeft>:
  71001c:	eb000009 	bl	710048 <moveCurrentBlockLeft>
  710020:	e3a00001 	mov	r0, #1
  710024:	ea000004 	b	71003c <noButtonsPressed>

00710028 <moveBlockRight>:
  710028:	eb000082 	bl	710238 <moveCurrentBlockRight>
  71002c:	e3a00001 	mov	r0, #1
  710030:	ea000001 	b	71003c <noButtonsPressed>

00710034 <moveBlockDown>:
  710034:	e3a00000 	mov	r0, #0
  710038:	eaffffff 	b	71003c <noButtonsPressed>

0071003c <noButtonsPressed>:
  71003c:	e8bd0240 	pop	{r6, r9}
  710040:	e49de004 	pop	{lr}		; (ldr lr, [sp], #4)
  710044:	e1a0f00e 	mov	pc, lr

00710048 <moveCurrentBlockLeft>:
  710048:	e52de004 	push	{lr}		; (str lr, [sp, #-4]!)
  71004c:	e52d6004 	push	{r6}		; (str r6, [sp, #-4]!)
  710050:	e59f03e0 	ldr	r0, [pc, #992]	; 710438 <r_finishIncBorderLoop+0xc>
  710054:	e5d01000 	ldrb	r1, [r0]
  710058:	e3510000 	cmp	r1, #0
  71005c:	0a000072 	beq	71022c <finishIncBorderLoop>
  710060:	e59f03d4 	ldr	r0, [pc, #980]	; 71043c <r_finishIncBorderLoop+0x10>
  710064:	e59f23d4 	ldr	r2, [pc, #980]	; 710440 <r_finishIncBorderLoop+0x14>
  710068:	e5d22000 	ldrb	r2, [r2]
  71006c:	e35200ff 	cmp	r2, #255	; 0xff
  710070:	0a000003 	beq	710084 <secondLeft>
  710074:	e2422001 	sub	r2, r2, #1
  710078:	e7d01002 	ldrb	r1, [r0, r2]
  71007c:	e3510001 	cmp	r1, #1
  710080:	aa000069 	bge	71022c <finishIncBorderLoop>

00710084 <secondLeft>:
  710084:	e59f23b4 	ldr	r2, [pc, #948]	; 710440 <r_finishIncBorderLoop+0x14>
  710088:	e5d22001 	ldrb	r2, [r2, #1]
  71008c:	e35200ff 	cmp	r2, #255	; 0xff
  710090:	0a000003 	beq	7100a4 <thirdLeft>
  710094:	e2422001 	sub	r2, r2, #1
  710098:	e7d01002 	ldrb	r1, [r0, r2]
  71009c:	e3510001 	cmp	r1, #1
  7100a0:	aa000061 	bge	71022c <finishIncBorderLoop>

007100a4 <thirdLeft>:
  7100a4:	e59f2394 	ldr	r2, [pc, #916]	; 710440 <r_finishIncBorderLoop+0x14>
  7100a8:	e5d22002 	ldrb	r2, [r2, #2]
  7100ac:	e35200ff 	cmp	r2, #255	; 0xff
  7100b0:	0a000003 	beq	7100c4 <fourthLeft>
  7100b4:	e2422001 	sub	r2, r2, #1
  7100b8:	e7d01002 	ldrb	r1, [r0, r2]
  7100bc:	e3510001 	cmp	r1, #1
  7100c0:	aa000059 	bge	71022c <finishIncBorderLoop>

007100c4 <fourthLeft>:
  7100c4:	e59f2374 	ldr	r2, [pc, #884]	; 710440 <r_finishIncBorderLoop+0x14>
  7100c8:	e5d22003 	ldrb	r2, [r2, #3]
  7100cc:	e35200ff 	cmp	r2, #255	; 0xff
  7100d0:	0a000003 	beq	7100e4 <finishLeftCheck>
  7100d4:	e2422001 	sub	r2, r2, #1
  7100d8:	e7d01002 	ldrb	r1, [r0, r2]
  7100dc:	e3510001 	cmp	r1, #1
  7100e0:	aa000051 	bge	71022c <finishIncBorderLoop>

007100e4 <finishLeftCheck>:
  7100e4:	e3a01000 	mov	r1, #0
  7100e8:	e59f2354 	ldr	r2, [pc, #852]	; 710444 <r_finishIncBorderLoop+0x18>
  7100ec:	e5d22000 	ldrb	r2, [r2]
  7100f0:	e59f0344 	ldr	r0, [pc, #836]	; 71043c <r_finishIncBorderLoop+0x10>
  7100f4:	e7c01002 	strb	r1, [r0, r2]
  7100f8:	e3a01000 	mov	r1, #0
  7100fc:	e59f2344 	ldr	r2, [pc, #836]	; 710448 <r_finishIncBorderLoop+0x1c>
  710100:	e5d22000 	ldrb	r2, [r2]
  710104:	e59f0330 	ldr	r0, [pc, #816]	; 71043c <r_finishIncBorderLoop+0x10>
  710108:	e7c01002 	strb	r1, [r0, r2]
  71010c:	e59f2338 	ldr	r2, [pc, #824]	; 71044c <r_finishIncBorderLoop+0x20>
  710110:	e5d22000 	ldrb	r2, [r2]
  710114:	e59f0320 	ldr	r0, [pc, #800]	; 71043c <r_finishIncBorderLoop+0x10>
  710118:	e7c01002 	strb	r1, [r0, r2]
  71011c:	e59f232c 	ldr	r2, [pc, #812]	; 710450 <r_finishIncBorderLoop+0x24>
  710120:	e5d22000 	ldrb	r2, [r2]
  710124:	e59f0310 	ldr	r0, [pc, #784]	; 71043c <r_finishIncBorderLoop+0x10>
  710128:	e7c01002 	strb	r1, [r0, r2]
  71012c:	ebfffeb9 	bl	70fc18 <drawSquareBlock>
  710130:	e59f0300 	ldr	r0, [pc, #768]	; 710438 <r_finishIncBorderLoop+0xc>
  710134:	e5d01000 	ldrb	r1, [r0]
  710138:	e2411001 	sub	r1, r1, #1
  71013c:	e5c01000 	strb	r1, [r0]
  710140:	e59f130c 	ldr	r1, [pc, #780]	; 710454 <r_finishIncBorderLoop+0x28>
  710144:	e5d11000 	ldrb	r1, [r1]
  710148:	e59f32f4 	ldr	r3, [pc, #756]	; 710444 <r_finishIncBorderLoop+0x18>
  71014c:	e5d32000 	ldrb	r2, [r3]
  710150:	e2422001 	sub	r2, r2, #1
  710154:	e5c32000 	strb	r2, [r3]
  710158:	e59f02dc 	ldr	r0, [pc, #732]	; 71043c <r_finishIncBorderLoop+0x10>
  71015c:	e7c01002 	strb	r1, [r0, r2]
  710160:	e59f12ec 	ldr	r1, [pc, #748]	; 710454 <r_finishIncBorderLoop+0x28>
  710164:	e5d11000 	ldrb	r1, [r1]
  710168:	e59f32d8 	ldr	r3, [pc, #728]	; 710448 <r_finishIncBorderLoop+0x1c>
  71016c:	e5d32000 	ldrb	r2, [r3]
  710170:	e2422001 	sub	r2, r2, #1
  710174:	e5c32000 	strb	r2, [r3]
  710178:	e59f02bc 	ldr	r0, [pc, #700]	; 71043c <r_finishIncBorderLoop+0x10>
  71017c:	e7c01002 	strb	r1, [r0, r2]
  710180:	e59f32c4 	ldr	r3, [pc, #708]	; 71044c <r_finishIncBorderLoop+0x20>
  710184:	e5d32000 	ldrb	r2, [r3]
  710188:	e2422001 	sub	r2, r2, #1
  71018c:	e5c32000 	strb	r2, [r3]
  710190:	e59f02a4 	ldr	r0, [pc, #676]	; 71043c <r_finishIncBorderLoop+0x10>
  710194:	e7c01002 	strb	r1, [r0, r2]
  710198:	e59f32b0 	ldr	r3, [pc, #688]	; 710450 <r_finishIncBorderLoop+0x24>
  71019c:	e5d32000 	ldrb	r2, [r3]
  7101a0:	e2422001 	sub	r2, r2, #1
  7101a4:	e5c32000 	strb	r2, [r3]
  7101a8:	e59f028c 	ldr	r0, [pc, #652]	; 71043c <r_finishIncBorderLoop+0x10>
  7101ac:	e7c01002 	strb	r1, [r0, r2]
  7101b0:	ebfffe98 	bl	70fc18 <drawSquareBlock>
  7101b4:	e3a06000 	mov	r6, #0
  7101b8:	e59f0298 	ldr	r0, [pc, #664]	; 710458 <r_finishIncBorderLoop+0x2c>

007101bc <incBordersLoop>:
  7101bc:	e3560003 	cmp	r6, #3
  7101c0:	0a000019 	beq	71022c <finishIncBorderLoop>
  7101c4:	e5d01000 	ldrb	r1, [r0]
  7101c8:	e35100ff 	cmp	r1, #255	; 0xff
  7101cc:	0a000001 	beq	7101d8 <incSecond>
  7101d0:	e2411001 	sub	r1, r1, #1
  7101d4:	e5c01000 	strb	r1, [r0]

007101d8 <incSecond>:
  7101d8:	e2800001 	add	r0, r0, #1
  7101dc:	e5d01000 	ldrb	r1, [r0]
  7101e0:	e35100ff 	cmp	r1, #255	; 0xff
  7101e4:	0a000001 	beq	7101f0 <incThird>
  7101e8:	e2411001 	sub	r1, r1, #1
  7101ec:	e5c01000 	strb	r1, [r0]

007101f0 <incThird>:
  7101f0:	e2800001 	add	r0, r0, #1
  7101f4:	e5d01000 	ldrb	r1, [r0]
  7101f8:	e35100ff 	cmp	r1, #255	; 0xff
  7101fc:	0a000001 	beq	710208 <incFourth>
  710200:	e2411001 	sub	r1, r1, #1
  710204:	e5c01000 	strb	r1, [r0]

00710208 <incFourth>:
  710208:	e2800001 	add	r0, r0, #1
  71020c:	e5d01000 	ldrb	r1, [r0]
  710210:	e35100ff 	cmp	r1, #255	; 0xff
  710214:	0a000001 	beq	710220 <finishInc>
  710218:	e2411001 	sub	r1, r1, #1
  71021c:	e5c01000 	strb	r1, [r0]

00710220 <finishInc>:
  710220:	e2866001 	add	r6, r6, #1
  710224:	e2800001 	add	r0, r0, #1
  710228:	eaffffe3 	b	7101bc <incBordersLoop>

0071022c <finishIncBorderLoop>:
  71022c:	e49d6004 	pop	{r6}		; (ldr r6, [sp], #4)
  710230:	e49de004 	pop	{lr}		; (ldr lr, [sp], #4)
  710234:	e1a0f00e 	mov	pc, lr

00710238 <moveCurrentBlockRight>:
  710238:	e52de004 	push	{lr}		; (str lr, [sp, #-4]!)
  71023c:	e52d6004 	push	{r6}		; (str r6, [sp, #-4]!)
  710240:	e59f01f0 	ldr	r0, [pc, #496]	; 710438 <r_finishIncBorderLoop+0xc>
  710244:	e5d01000 	ldrb	r1, [r0]
  710248:	e59f020c 	ldr	r0, [pc, #524]	; 71045c <r_finishIncBorderLoop+0x30>
  71024c:	e5d00000 	ldrb	r0, [r0]
  710250:	e0811000 	add	r1, r1, r0
  710254:	e351000a 	cmp	r1, #10
  710258:	aa000073 	bge	71042c <r_finishIncBorderLoop>
  71025c:	e59f01d8 	ldr	r0, [pc, #472]	; 71043c <r_finishIncBorderLoop+0x10>
  710260:	e59f21f8 	ldr	r2, [pc, #504]	; 710460 <r_finishIncBorderLoop+0x34>
  710264:	e5d22000 	ldrb	r2, [r2]
  710268:	e35200ff 	cmp	r2, #255	; 0xff
  71026c:	0a000003 	beq	710280 <secondRight>
  710270:	e2822001 	add	r2, r2, #1
  710274:	e7d01002 	ldrb	r1, [r0, r2]
  710278:	e3510001 	cmp	r1, #1
  71027c:	aa00006a 	bge	71042c <r_finishIncBorderLoop>

00710280 <secondRight>:
  710280:	e59f21d8 	ldr	r2, [pc, #472]	; 710460 <r_finishIncBorderLoop+0x34>
  710284:	e5d22001 	ldrb	r2, [r2, #1]
  710288:	e35200ff 	cmp	r2, #255	; 0xff
  71028c:	0a000003 	beq	7102a0 <thirdRight>
  710290:	e2822001 	add	r2, r2, #1
  710294:	e7d01002 	ldrb	r1, [r0, r2]
  710298:	e3510001 	cmp	r1, #1
  71029c:	aa000062 	bge	71042c <r_finishIncBorderLoop>

007102a0 <thirdRight>:
  7102a0:	e59f21b8 	ldr	r2, [pc, #440]	; 710460 <r_finishIncBorderLoop+0x34>
  7102a4:	e5d22002 	ldrb	r2, [r2, #2]
  7102a8:	e35200ff 	cmp	r2, #255	; 0xff
  7102ac:	0a000003 	beq	7102c0 <fourthRight>
  7102b0:	e2822001 	add	r2, r2, #1
  7102b4:	e7d01002 	ldrb	r1, [r0, r2]
  7102b8:	e3510001 	cmp	r1, #1
  7102bc:	aa00005a 	bge	71042c <r_finishIncBorderLoop>

007102c0 <fourthRight>:
  7102c0:	e59f2198 	ldr	r2, [pc, #408]	; 710460 <r_finishIncBorderLoop+0x34>
  7102c4:	e5d22003 	ldrb	r2, [r2, #3]
  7102c8:	e35200ff 	cmp	r2, #255	; 0xff
  7102cc:	0a000003 	beq	7102e0 <finishRightCheck>
  7102d0:	e2822001 	add	r2, r2, #1
  7102d4:	e7d01002 	ldrb	r1, [r0, r2]
  7102d8:	e3510001 	cmp	r1, #1
  7102dc:	aa000052 	bge	71042c <r_finishIncBorderLoop>

007102e0 <finishRightCheck>:
  7102e0:	e3a01000 	mov	r1, #0
  7102e4:	e59f2158 	ldr	r2, [pc, #344]	; 710444 <r_finishIncBorderLoop+0x18>
  7102e8:	e5d22000 	ldrb	r2, [r2]
  7102ec:	e59f0148 	ldr	r0, [pc, #328]	; 71043c <r_finishIncBorderLoop+0x10>
  7102f0:	e7c01002 	strb	r1, [r0, r2]
  7102f4:	e3a01000 	mov	r1, #0
  7102f8:	e59f2148 	ldr	r2, [pc, #328]	; 710448 <r_finishIncBorderLoop+0x1c>
  7102fc:	e5d22000 	ldrb	r2, [r2]
  710300:	e59f0134 	ldr	r0, [pc, #308]	; 71043c <r_finishIncBorderLoop+0x10>
  710304:	e7c01002 	strb	r1, [r0, r2]
  710308:	e59f213c 	ldr	r2, [pc, #316]	; 71044c <r_finishIncBorderLoop+0x20>
  71030c:	e5d22000 	ldrb	r2, [r2]
  710310:	e59f0124 	ldr	r0, [pc, #292]	; 71043c <r_finishIncBorderLoop+0x10>
  710314:	e7c01002 	strb	r1, [r0, r2]
  710318:	e59f2130 	ldr	r2, [pc, #304]	; 710450 <r_finishIncBorderLoop+0x24>
  71031c:	e5d22000 	ldrb	r2, [r2]
  710320:	e59f0114 	ldr	r0, [pc, #276]	; 71043c <r_finishIncBorderLoop+0x10>
  710324:	e7c01002 	strb	r1, [r0, r2]
  710328:	ebfffe3a 	bl	70fc18 <drawSquareBlock>
  71032c:	e59f0104 	ldr	r0, [pc, #260]	; 710438 <r_finishIncBorderLoop+0xc>
  710330:	e5d01000 	ldrb	r1, [r0]
  710334:	e2811001 	add	r1, r1, #1
  710338:	e5c01000 	strb	r1, [r0]
  71033c:	e59f1110 	ldr	r1, [pc, #272]	; 710454 <r_finishIncBorderLoop+0x28>
  710340:	e5d11000 	ldrb	r1, [r1]
  710344:	e59f30f8 	ldr	r3, [pc, #248]	; 710444 <r_finishIncBorderLoop+0x18>
  710348:	e5d32000 	ldrb	r2, [r3]
  71034c:	e2822001 	add	r2, r2, #1
  710350:	e5c32000 	strb	r2, [r3]
  710354:	e59f00e0 	ldr	r0, [pc, #224]	; 71043c <r_finishIncBorderLoop+0x10>
  710358:	e7c01002 	strb	r1, [r0, r2]
  71035c:	e1a01002 	mov	r1, r2
  710360:	e59f10ec 	ldr	r1, [pc, #236]	; 710454 <r_finishIncBorderLoop+0x28>
  710364:	e5d11000 	ldrb	r1, [r1]
  710368:	e59f30d8 	ldr	r3, [pc, #216]	; 710448 <r_finishIncBorderLoop+0x1c>
  71036c:	e5d32000 	ldrb	r2, [r3]
  710370:	e2822001 	add	r2, r2, #1
  710374:	e5c32000 	strb	r2, [r3]
  710378:	e59f00bc 	ldr	r0, [pc, #188]	; 71043c <r_finishIncBorderLoop+0x10>
  71037c:	e7c01002 	strb	r1, [r0, r2]
  710380:	e59f30c4 	ldr	r3, [pc, #196]	; 71044c <r_finishIncBorderLoop+0x20>
  710384:	e5d32000 	ldrb	r2, [r3]
  710388:	e2822001 	add	r2, r2, #1
  71038c:	e5c32000 	strb	r2, [r3]
  710390:	e59f00a4 	ldr	r0, [pc, #164]	; 71043c <r_finishIncBorderLoop+0x10>
  710394:	e7c01002 	strb	r1, [r0, r2]
  710398:	e59f30b0 	ldr	r3, [pc, #176]	; 710450 <r_finishIncBorderLoop+0x24>
  71039c:	e5d32000 	ldrb	r2, [r3]
  7103a0:	e2822001 	add	r2, r2, #1
  7103a4:	e5c32000 	strb	r2, [r3]
  7103a8:	e59f008c 	ldr	r0, [pc, #140]	; 71043c <r_finishIncBorderLoop+0x10>
  7103ac:	e7c01002 	strb	r1, [r0, r2]
  7103b0:	ebfffe18 	bl	70fc18 <drawSquareBlock>
  7103b4:	e3a06000 	mov	r6, #0
  7103b8:	e59f0098 	ldr	r0, [pc, #152]	; 710458 <r_finishIncBorderLoop+0x2c>

007103bc <r_incBordersLoop>:
  7103bc:	e3560003 	cmp	r6, #3
  7103c0:	0a000019 	beq	71042c <r_finishIncBorderLoop>
  7103c4:	e5d01000 	ldrb	r1, [r0]
  7103c8:	e35100ff 	cmp	r1, #255	; 0xff
  7103cc:	0a000001 	beq	7103d8 <r_incSecond>
  7103d0:	e2811001 	add	r1, r1, #1
  7103d4:	e5c01000 	strb	r1, [r0]

007103d8 <r_incSecond>:
  7103d8:	e2800001 	add	r0, r0, #1
  7103dc:	e5d01000 	ldrb	r1, [r0]
  7103e0:	e35100ff 	cmp	r1, #255	; 0xff
  7103e4:	0a000001 	beq	7103f0 <r_incThird>
  7103e8:	e2811001 	add	r1, r1, #1
  7103ec:	e5c01000 	strb	r1, [r0]

007103f0 <r_incThird>:
  7103f0:	e2800001 	add	r0, r0, #1
  7103f4:	e5d01000 	ldrb	r1, [r0]
  7103f8:	e35100ff 	cmp	r1, #255	; 0xff
  7103fc:	0a000001 	beq	710408 <r_incFourth>
  710400:	e2811001 	add	r1, r1, #1
  710404:	e5c01000 	strb	r1, [r0]

00710408 <r_incFourth>:
  710408:	e2800001 	add	r0, r0, #1
  71040c:	e5d01000 	ldrb	r1, [r0]
  710410:	e35100ff 	cmp	r1, #255	; 0xff
  710414:	0a000001 	beq	710420 <r_finishInc>
  710418:	e2811001 	add	r1, r1, #1
  71041c:	e5c01000 	strb	r1, [r0]

00710420 <r_finishInc>:
  710420:	e2866001 	add	r6, r6, #1
  710424:	e2800001 	add	r0, r0, #1
  710428:	eaffffe3 	b	7103bc <r_incBordersLoop>

0071042c <r_finishIncBorderLoop>:
  71042c:	e49d6004 	pop	{r6}		; (ldr r6, [sp], #4)
  710430:	e49de004 	pop	{lr}		; (ldr lr, [sp], #4)
  710434:	e1a0f00e 	mov	pc, lr
  710438:	006c4f7a 	.word	0x006c4f7a
  71043c:	006c4e98 	.word	0x006c4e98
  710440:	006c4f68 	.word	0x006c4f68
  710444:	006c4f60 	.word	0x006c4f60
  710448:	006c4f61 	.word	0x006c4f61
  71044c:	006c4f62 	.word	0x006c4f62
  710450:	006c4f63 	.word	0x006c4f63
  710454:	006c4f7c 	.word	0x006c4f7c
  710458:	006c4f64 	.word	0x006c4f64
  71045c:	006c4f7b 	.word	0x006c4f7b
  710460:	006c4f6c 	.word	0x006c4f6c
